L251 LINKER/LOCATER V4.66.93.0                                                          07/15/2024  23:31:17  PAGE 1


L251 LINKER/LOCATER V4.66.93.0, INVOKED BY:
D:\C51-KEIL\C251\BIN\L251.EXE .\Out_File\board.obj, .\Out_File\common.obj, ..\..\Libraries\libraries\STC32_FPMU_LARGE_V1
>> .0.LIB (STC32F_FPMU), .\Out_File\zf_adc.obj, .\Out_File\zf_delay.obj, .\Out_File\zf_eeprom.obj, .\Out_File\zf_exti.ob
>> j, .\Out_File\zf_gpio.obj, .\Out_File\zf_iic.obj, .\Out_File\zf_nvic.obj, .\Out_File\zf_pwm.obj, .\Out_File\zf_spi.ob
>> j, .\Out_File\zf_tim.obj, .\Out_File\zf_uart.obj, .\Out_File\zf_fifo.obj, .\Out_File\SEEKFREE_18TFT.obj, .\Out_File\S
>> EEKFREE_ABSOLUTE_ENCODER.obj, .\Out_File\SEEKFREE_BLUETOOTH_CH9141.obj, ..\..\Libraries\seekfree_peripheral\SEEKFREE_
>> CONFIG.LIB, .\Out_File\SEEKFREE_DL1A.obj, .\Out_File\SEEKFREE_DL1B.obj, .\Out_File\SEEKFREE_FONT.obj, .\Out_File\SEEK
>> FREE_FUNCTION.obj, .\Out_File\SEEKFREE_ICM20602.obj, .\Out_File\SEEKFREE_IMU660RA.obj, .\Out_File\SEEKFREE_IMU963RA.o
>> bj, .\Out_File\SEEKFREE_IPS114_SPI.obj, .\Out_File\SEEKFREE_IPS200_SPI.obj, .\Out_File\SEEKFREE_MPU6050.obj, .\Out_Fi
>> le\SEEKFREE_OLED.obj, .\Out_File\SEEKFREE_TSL1401.obj, .\Out_File\SEEKFREE_VIRSCO.obj, .\Out_File\SEEKFREE_WIRELESS.o
>> bj, .\Out_File\init.obj, .\Out_File\motor.obj, .\Out_File\control.obj, .\Out_File\element.obj, .\Out_File\key.obj, .\
>> Out_File\oled.obj, .\Out_File\iic_io.obj, .\Out_File\tf_luna.obj, .\Out_File\isr.obj, .\Out_File\main.obj, .\Out_File
>> \seekfree_assistant.obj, .\Out_File\seekfree_assistant_inface.obj TO .\Out_File\SEEKFREE PRINT (.\Out_File\SEEKFREE.m
>> ap) CASE DISABLEWARNING (16, 57) REMOVEUNUSED CLASSES (EDATA (0X0-0X1FFF), HDATA (0X0-0X1FFF))


CPU MODE:     251 SOURCE MODE
INTR FRAME:   4 BYTES SAVED ON INTERRUPT
MEMORY MODEL: XSMALL WITH FLOATING POINT ARITHMETIC


INPUT MODULES INCLUDED:
  .\Out_File\board.obj (board)
         COMMENT TYPE 0: C251 V5.60.0
  .\Out_File\common.obj (common)
         COMMENT TYPE 0: C251 V5.60.0
  ..\..\Libraries\libraries\STC32_FPMU_LARGE_V1.0.LIB (STC32F_FPMU)
         COMMENT TYPE 0: A251 V4.69.13.0
  .\Out_File\zf_adc.obj (zf_adc)
         COMMENT TYPE 0: C251 V5.60.0
  .\Out_File\zf_delay.obj (zf_delay)
         COMMENT TYPE 0: C251 V5.60.0
  .\Out_File\zf_eeprom.obj (zf_eeprom)
         COMMENT TYPE 0: C251 V5.60.0
  .\Out_File\zf_exti.obj (zf_exti)
         COMMENT TYPE 0: C251 V5.60.0
  .\Out_File\zf_gpio.obj (zf_gpio)
         COMMENT TYPE 0: C251 V5.60.0
  .\Out_File\zf_iic.obj (zf_iic)
         COMMENT TYPE 0: C251 V5.60.0
  .\Out_File\zf_nvic.obj (zf_nvic)
         COMMENT TYPE 0: C251 V5.60.0
  .\Out_File\zf_pwm.obj (zf_pwm)
         COMMENT TYPE 0: C251 V5.60.0
  .\Out_File\zf_spi.obj (zf_spi)
         COMMENT TYPE 0: C251 V5.60.0
  .\Out_File\zf_tim.obj (zf_tim)
         COMMENT TYPE 0: C251 V5.60.0
  .\Out_File\zf_uart.obj (zf_uart)
         COMMENT TYPE 0: C251 V5.60.0
  .\Out_File\zf_fifo.obj (zf_fifo)
         COMMENT TYPE 0: C251 V5.60.0
  .\Out_File\SEEKFREE_18TFT.obj (SEEKFREE_18TFT)
         COMMENT TYPE 0: C251 V5.60.0
  .\Out_File\SEEKFREE_ABSOLUTE_ENCODER.obj (SEEKFREE_ABSOLUTE_ENCODER)
         COMMENT TYPE 0: C251 V5.60.0
  .\Out_File\SEEKFREE_BLUETOOTH_CH9141.obj (SEEKFREE_BLUETOOTH_CH9141)
         COMMENT TYPE 0: C251 V5.60.0
  .\Out_File\SEEKFREE_DL1A.obj (SEEKFREE_DL1A)
         COMMENT TYPE 0: C251 V5.60.0
  .\Out_File\SEEKFREE_DL1B.obj (SEEKFREE_DL1B)
         COMMENT TYPE 0: C251 V5.60.0
  .\Out_File\SEEKFREE_FONT.obj (SEEKFREE_FONT)
         COMMENT TYPE 0: C251 V5.60.0
  .\Out_File\SEEKFREE_FUNCTION.obj (SEEKFREE_FUNCTION)
         COMMENT TYPE 0: C251 V5.60.0
L251 LINKER/LOCATER V4.66.93.0                                                        07/15/2024  23:31:17  PAGE 2


  .\Out_File\SEEKFREE_ICM20602.obj (SEEKFREE_ICM20602)
         COMMENT TYPE 0: C251 V5.60.0
  .\Out_File\SEEKFREE_IMU660RA.obj (SEEKFREE_IMU660RA)
         COMMENT TYPE 0: C251 V5.60.0
  .\Out_File\SEEKFREE_IMU963RA.obj (SEEKFREE_IMU963RA)
         COMMENT TYPE 0: C251 V5.60.0
  .\Out_File\SEEKFREE_IPS114_SPI.obj (SEEKFREE_IPS114_SPI)
         COMMENT TYPE 0: C251 V5.60.0
  .\Out_File\SEEKFREE_IPS200_SPI.obj (SEEKFREE_IPS200_SPI)
         COMMENT TYPE 0: C251 V5.60.0
  .\Out_File\SEEKFREE_MPU6050.obj (SEEKFREE_MPU6050)
         COMMENT TYPE 0: C251 V5.60.0
  .\Out_File\SEEKFREE_OLED.obj (SEEKFREE_OLED)
         COMMENT TYPE 0: C251 V5.60.0
  .\Out_File\SEEKFREE_TSL1401.obj (SEEKFREE_TSL1401)
         COMMENT TYPE 0: C251 V5.60.0
  .\Out_File\SEEKFREE_VIRSCO.obj (SEEKFREE_VIRSCO)
         COMMENT TYPE 0: C251 V5.60.0
  .\Out_File\SEEKFREE_WIRELESS.obj (SEEKFREE_WIRELESS)
         COMMENT TYPE 0: C251 V5.60.0
  .\Out_File\init.obj (init)
         COMMENT TYPE 0: C251 V5.60.0
  .\Out_File\motor.obj (motor)
         COMMENT TYPE 0: C251 V5.60.0
  .\Out_File\control.obj (control)
         COMMENT TYPE 0: C251 V5.60.0
  .\Out_File\element.obj (element)
         COMMENT TYPE 0: C251 V5.60.0
  .\Out_File\key.obj (key)
         COMMENT TYPE 0: C251 V5.60.0
  .\Out_File\oled.obj (oled)
         COMMENT TYPE 0: C251 V5.60.0
  .\Out_File\iic_io.obj (iic_io)
         COMMENT TYPE 0: C251 V5.60.0
  .\Out_File\tf_luna.obj (tf_luna)
         COMMENT TYPE 0: C251 V5.60.0
  .\Out_File\isr.obj (isr)
         COMMENT TYPE 0: C251 V5.60.0
  .\Out_File\main.obj (main)
         COMMENT TYPE 0: C251 V5.60.0
  .\Out_File\seekfree_assistant.obj (seekfree_assistant)
         COMMENT TYPE 0: C251 V5.60.0
  .\Out_File\seekfree_assistant_inface.obj (seekfree_assistant_inface)
         COMMENT TYPE 0: C251 V5.60.0
  ..\..\Libraries\seekfree_peripheral\SEEKFREE_CONFIG.LIB (SEEKFREE_CONFIG)
         COMMENT TYPE 0: C251 V5.60.0
  D:\C51-KEIL\C251\LIB\C2SFPXS.LIB (PRINTF)
         COMMENT TYPE 0: A251 V4.69.6.0
  D:\C51-KEIL\C251\LIB\C2SFPXS.LIB (SPRINTF)
         COMMENT TYPE 0: A251 V4.69.6.0
  D:\C51-KEIL\C251\LIB\C2SFPXS.LIB (?C?PRNFMT)
         COMMENT TYPE 0: A251 V4.69.6.0
  D:\C51-KEIL\C251\LIB\C2SFPXS.LIB (?C?FPCONVERT)
         COMMENT TYPE 0: A251 V4.69.6.0
  D:\C51-KEIL\C251\LIB\C2SFPXS.LIB (?C?FTNPWR)
         COMMENT TYPE 0: A251 V4.69.6.0
  D:\C51-KEIL\C251\LIB\C2SXS.LIB (?C_START)
         COMMENT TYPE 0: A251 V4.69.6.0
  D:\C51-KEIL\C251\LIB\C2SXS.LIB (?C?INITEDATA)
         COMMENT TYPE 0: A251 V4.69.6.0
  D:\C51-KEIL\C251\LIB\C2SXS.LIB (?C?SIDIV)
         COMMENT TYPE 0: A251 V4.69.6.0
  D:\C51-KEIL\C251\LIB\C2SXS.LIB (?C?LMUL)
         COMMENT TYPE 0: A251 V4.69.6.0
  D:\C51-KEIL\C251\LIB\C2SXS.LIB (?C?LIMUL)
L251 LINKER/LOCATER V4.66.93.0                                                        07/15/2024  23:31:17  PAGE 3


         COMMENT TYPE 0: A251 V4.69.6.0
  D:\C51-KEIL\C251\LIB\C2SXS.LIB (?C?ULDIV)
         COMMENT TYPE 0: A251 V4.69.6.0
  D:\C51-KEIL\C251\LIB\C2SXS.LIB (?C?SLDIV)
         COMMENT TYPE 0: A251 V4.69.6.0
  D:\C51-KEIL\C251\LIB\C2SXS.LIB (?C?BMOVENP)
         COMMENT TYPE 0: A251 V4.69.6.0
  D:\C51-KEIL\C251\LIB\C2SXS.LIB (STRLEN)
         COMMENT TYPE 0: C251 V5.58.7
  D:\C51-KEIL\C251\LIB\C2SXS.LIB (memcpy)
         COMMENT TYPE 0: C251 V5.58.7
  D:\C51-KEIL\C251\LIB\C2SXS.LIB (memset)
         COMMENT TYPE 0: C251 V5.58.7
  D:\C51-KEIL\C251\LIB\C2SXS.LIB (?C?INITEDATA_END)
         COMMENT TYPE 0: A251 V4.69.6.0


ACTIVE MEMORY CLASSES OF MODULE:  .\Out_File\SEEKFREE (board)

BASE        START       END         USED      MEMORY CLASS
==========================================================
000000H     000000H     001FFFH     00152BH   EDATA
000000H     000000H     001FFFH               HDATA
FF0000H     FF0000H     FFFFFFH     00A4D5H   CODE
000000H     FF0000H     FFFFFFH     000813H   HCONST
FF0000H     FF0000H     FFFFFFH     000004H   CONST
000000H     000000H     00007FH     000008H   DATA


MEMORY MAP OF MODULE:  .\Out_File\SEEKFREE (board)


START     STOP      LENGTH    ALIGN  RELOC    MEMORY CLASS   SEGMENT NAME
=========================================================================
000000H   000007H   000008H   ---    AT..     DATA           "REG BANK 0"
000008H   000208H   000201H   BYTE   UNIT     EDATA          ?ED?SEEKFREE_TSL1401
000209H   000308H   000100H   BYTE   UNIT     EDATA          ?ED?CONTROL
000309H   0003EEH   0000E6H   BYTE   UNIT     EDATA          ?ED?ELEMENT
0003EFH   0004D1H   0000E3H   BYTE   UNIT     EDATA          ?ED?SEEKFREE_ASSISTANT
0004D2H   000572H   0000A1H   BYTE   UNIT     EDATA          ?ED?INIT
000573H   0005FFH   00008DH   BYTE   UNIT     EDATA          ?ED?SEEKFREE_ASSISTANT_DATA_ANALYSIS?SEEKFREE_ASSISTANT
000600H   00068BH   00008CH   BYTE   UNIT     EDATA          ?ED?DL1B_INIT?SEEKFREE_DL1B
00068CH   0006EAH   00005FH   BYTE   UNIT     EDATA          ?ED?ZF_SPRINTF?SEEKFREE_FUNCTION
0006EBH   000742H   000058H   BYTE   UNIT     EDATA          ?ED?SEEKFREE_BLUETOOTH_CH9141
000743H   00079AH   000058H   BYTE   UNIT     EDATA          ?ED?SEEKFREE_WIRELESS
00079BH   0007E3H   000049H   BYTE   UNIT     EDATA          ?ED?MOTOR
0007E4H   000826H   000043H   BYTE   UNIT     EDATA          ?ED?OLED
000827H   00085EH   000038H   BYTE   UNIT     EDATA          ?ED?FUNC_DOUBLE_TO_STR?SEEKFREE_FUNCTION
00085FH   00088EH   000030H   BYTE   UNIT     EDATA          ?ED?LCD_SHOWFLOAT_SIMSPI?SEEKFREE_18TFT
00088FH   0008BEH   000030H   BYTE   UNIT     EDATA          ?ED?LCD_SHOWFLOAT?SEEKFREE_18TFT
0008BFH   0008EEH   000030H   BYTE   UNIT     EDATA          ?ED?IPS114_SHOWFLOAT_SIMSPI?SEEKFREE_IPS114_SPI
0008EFH   00091EH   000030H   BYTE   UNIT     EDATA          ?ED?IPS114_SHOWFLOAT?SEEKFREE_IPS114_SPI
00091FH   00094EH   000030H   BYTE   UNIT     EDATA          ?ED?OLED_PRINTF_FLOAT?SEEKFREE_OLED
00094FH   00097EH   000030H   BYTE   UNIT     EDATA          ?ED?OLED_PRINTF_FLOAT_SPI?SEEKFREE_OLED
00097FH   0009ADH   00002FH   BYTE   UNIT     EDATA          ?ED?DL1A_SET_MEASUREMENT_TIMING_BUDGET?SEEKFREE_DL1A
0009AEH   0009D9H   00002CH   BYTE   UNIT     EDATA          ?ED?LCD_SHOWINT32_SIMSPI?SEEKFREE_18TFT
0009DAH   000A05H   00002CH   BYTE   UNIT     EDATA          ?ED?LCD_SHOWINT32?SEEKFREE_18TFT
000A06H   000A31H   00002CH   BYTE   UNIT     EDATA          ?ED?IPS114_SHOWINT32_SIMSPI?SEEKFREE_IPS114_SPI
000A32H   000A5DH   00002CH   BYTE   UNIT     EDATA          ?ED?IPS114_SHOWINT32?SEEKFREE_IPS114_SPI
000A5EH   000A89H   00002CH   BYTE   UNIT     EDATA          ?ED?OLED_PRINTF_INT32?SEEKFREE_OLED
000A8AH   000AB5H   00002CH   BYTE   UNIT     EDATA          ?ED?OLED_PRINTF_INT32_SPI?SEEKFREE_OLED
000AB6H   000ADFH   00002AH   BYTE   UNIT     EDATA          ?ED?FUNC_FLOAT_TO_STR?SEEKFREE_FUNCTION
000AE0H   000B09H   00002AH   BYTE   UNIT     EDATA          ?ED?SEEKFREE_ASSISTANT_OSCILLOSCOPE_SEND?SEEKFREE_ASSISTAN
                                                             -T
000B0AH   000B32H   000029H   BYTE   UNIT     EDATA          ?ED?ISR
L251 LINKER/LOCATER V4.66.93.0                                                        07/15/2024  23:31:17  PAGE 4


000B33H   000B5AH   000028H   BYTE   UNIT     EDATA          _EDATA_GROUP_
000B5BH   000B7FH   000025H   BYTE   UNIT     EDATA          ?ED?FUNC_HEX_TO_STR?SEEKFREE_FUNCTION
000B80H   000BA2H   000023H   BYTE   UNIT     EDATA          ?ED?IPS200_SHOW_FLOAT?SEEKFREE_IPS200_SPI
000BA3H   000BC2H   000020H   BYTE   UNIT     EDATA          ?ED?IPS200_SHOW_WAVE?SEEKFREE_IPS200_SPI
000BC3H   000BE1H   00001FH   BYTE   UNIT     EDATA          ?ED?DL1A_GET_MEASUREMENT_TIMING_BUDGET?SEEKFREE_DL1A
000BE2H   000BFEH   00001DH   BYTE   UNIT     EDATA          ?ED?FUNC_INT_TO_STR?SEEKFREE_FUNCTION
000BFFH   000C1BH   00001DH   BYTE   UNIT     EDATA          ?ED?IPS200_SHOW_INT?SEEKFREE_IPS200_SPI
000C1CH   000C38H   00001DH   BYTE   UNIT     EDATA          ?ED?IPS200_SHOW_UINT?SEEKFREE_IPS200_SPI
000C39H   000C51H   000019H   BYTE   UNIT     EDATA          ?ED?FUNC_UINT_TO_STR?SEEKFREE_FUNCTION
000C52H   000C6AH   000019H   BYTE   UNIT     EDATA          ?ED?IPS200_SHOW_CHINESE?SEEKFREE_IPS200_SPI
000C6BH   000C82H   000018H   BYTE   UNIT     EDATA          ?ED?FIFO_READ_BUFFER?ZF_FIFO
000C83H   000C9AH   000018H   BYTE   UNIT     EDATA          ?ED?FIFO_READ_TAIL_BUFFER?ZF_FIFO
000C9BH   000CB0H   000016H   BYTE   UNIT     EDATA          ?ED?IPS200_DRAW_LINE?SEEKFREE_IPS200_SPI
000CB1H   000CC5H   000015H   BYTE   UNIT     EDATA          ?ED?DL1A_INIT?SEEKFREE_DL1A
000CC6H   000CD9H   000014H   BYTE   UNIT     EDATA          ?ED?PWM_INIT?ZF_PWM
000CDAH   000CEDH   000014H   BYTE   UNIT     EDATA          ?ED?PWM_FREQ?ZF_PWM
000CEEH   000D01H   000014H   BYTE   UNIT     EDATA          ?ED?NUMBER_CONVERSION_ASCII?SEEKFREE_FUNCTION
000D02H   000D15H   000014H   BYTE   UNIT     EDATA          ?ED?PID_TURNSET?CONTROL
000D16H   000D27H   000012H   BYTE   UNIT     EDATA          ?ED?FIFO_WRITE_BUFFER?ZF_FIFO
000D28H   000D39H   000012H   BYTE   UNIT     EDATA          ?ED?SEEKFREE_IMU963RA
000D3AH   000D4BH   000012H   BYTE   UNIT     EDATA          ?ED?OLED_DIS_BMP?SEEKFREE_OLED
000D4CH   000D5DH   000012H   BYTE   UNIT     EDATA          ?ED?OLED_DIS_BMP_SPI?SEEKFREE_OLED
000D5EH   000D6FH   000012H   BYTE   UNIT     EDATA          ?ED?GET_ADC?INIT
000D70H   000D80H   000011H   BYTE   UNIT     EDATA          ?ED?FUNC_STR_TO_FLOAT?SEEKFREE_FUNCTION
000D81H   000D91H   000011H   BYTE   UNIT     EDATA          ?ED?FUNC_STR_TO_DOUBLE?SEEKFREE_FUNCTION
000D92H   000DA1H   000010H   BYTE   UNIT     EDATA          ?ED?FIFO_INIT?ZF_FIFO
000DA2H   000DB1H   000010H   BYTE   UNIT     EDATA          ?ED?DL1B_IIC_TRANSFER_8BIT_ARRAY?SEEKFREE_DL1B
000DB2H   000DC1H   000010H   BYTE   UNIT     EDATA          ?ED?PID_SET?CONTROL
000DC2H   000DD1H   000010H   BYTE   UNIT     EDATA          ?ED?INCPID?CONTROL
000DD2H   000DE1H   000010H   BYTE   UNIT     EDATA          ?ED?PSTPID?CONTROL
000DE2H   000DEFH   00000EH   BYTE   UNIT     EDATA          ?ED?PWM_DUTY?ZF_PWM
000DF0H   000DFDH   00000EH   BYTE   UNIT     EDATA          ?ED?UART_INIT?ZF_UART
000DFEH   000E0BH   00000EH   BYTE   UNIT     EDATA          ?ED?FUNC_STR_TO_HEX?SEEKFREE_FUNCTION
000E0CH   000E19H   00000EH   BYTE   UNIT     EDATA          ?ED?SEEKFREE_IPS200_SPI
000E1AH   000E27H   00000EH   BYTE   UNIT     EDATA          ?ED?OLED_PRINT_CHINESE?SEEKFREE_OLED
000E28H   000E35H   00000EH   BYTE   UNIT     EDATA          ?ED?OLED_PRINT_CHINESE_SPI?SEEKFREE_OLED
000E36H   000E43H   00000EH   BYTE   UNIT     EDATA          ?ED?DATA_CONVERSION?SEEKFREE_VIRSCO
000E44H   000E50H   00000DH   BYTE   UNIT     EDATA          ?ED?PRINTF_REVERSE_ORDER?SEEKFREE_FUNCTION
000E51H   000E5DH   00000DH   BYTE   UNIT     EDATA          ?ED?ICM20602_SIMSPI_R_REG_BYTES?SEEKFREE_ICM20602
000E5EH   000E6AH   00000DH   BYTE   UNIT     EDATA          ?ED?I2C_SENDBYTES?IIC_IO
000E6BH   000E76H   00000CH   BYTE   UNIT     EDATA          ?ED?FIFO_READ_ELEMENT?ZF_FIFO
000E77H   000E82H   00000CH   BYTE   UNIT     EDATA          ?ED?LCD_SHOWINT16_SIMSPI?SEEKFREE_18TFT
000E83H   000E8EH   00000CH   BYTE   UNIT     EDATA          ?ED?LCD_SHOWUINT16_SIMSPI?SEEKFREE_18TFT
000E8FH   000E9AH   00000CH   BYTE   UNIT     EDATA          ?ED?LCD_SHOWINT16?SEEKFREE_18TFT
000E9BH   000EA6H   00000CH   BYTE   UNIT     EDATA          ?ED?LCD_SHOWUINT16?SEEKFREE_18TFT
000EA7H   000EB2H   00000CH   BYTE   UNIT     EDATA          ?ED?SHOWIMAGE?SEEKFREE_18TFT
000EB3H   000EBEH   00000CH   BYTE   UNIT     EDATA          ?ED?BLUETOOTH_CH9141_READ_BUFF?SEEKFREE_BLUETOOTH_CH9141
000EBFH   000ECAH   00000CH   BYTE   UNIT     EDATA          ?ED?DL1A_GET_SPAD_INFO?SEEKFREE_DL1A
000ECBH   000ED6H   00000CH   BYTE   UNIT     EDATA          ?ED?DL1A_GET_SEQUENCE_STEP_TIMEOUTS?SEEKFREE_DL1A
000ED7H   000EE2H   00000CH   BYTE   UNIT     EDATA          ?ED?SEEKFREE_ICM20602
000EE3H   000EEEH   00000CH   BYTE   UNIT     EDATA          ?ED?SEEKFREE_IMU660RA
000EEFH   000EFAH   00000CH   BYTE   UNIT     EDATA          ?ED?IPS114_SHOWINT16_SIMSPI?SEEKFREE_IPS114_SPI
000EFBH   000F06H   00000CH   BYTE   UNIT     EDATA          ?ED?IPS114_SHOWUINT16_SIMSPI?SEEKFREE_IPS114_SPI
000F07H   000F12H   00000CH   BYTE   UNIT     EDATA          ?ED?IPS114_SHOWINT16?SEEKFREE_IPS114_SPI
000F13H   000F1EH   00000CH   BYTE   UNIT     EDATA          ?ED?IPS114_SHOWUINT16?SEEKFREE_IPS114_SPI
000F1FH   000F2AH   00000CH   BYTE   UNIT     EDATA          ?ED?SEEKFREE_MPU6050
000F2BH   000F36H   00000CH   BYTE   UNIT     EDATA          ?ED?WIRELESS_UART_READ_BUFF?SEEKFREE_WIRELESS
000F37H   000F42H   00000CH   BYTE   UNIT     EDATA          ?ED?TURN_PSTPID?CONTROL
000F43H   000F4EH   00000CH   BYTE   UNIT     EDATA          ?ED?I2C_RECVBYTE?IIC_IO
000F4FH   000F5AH   00000CH   BYTE   UNIT     EDATA          ?ED?I2C_RECVBYTES?IIC_IO
000F5BH   000F65H   00000BH   BYTE   UNIT     EDATA          ?ED?OLED_UINT16?SEEKFREE_OLED
000F66H   000F70H   00000BH   BYTE   UNIT     EDATA          ?ED?OLED_INT16?SEEKFREE_OLED
000F71H   000F7BH   00000BH   BYTE   UNIT     EDATA          ?ED?OLED_UINT16_SPI?SEEKFREE_OLED
000F7CH   000F86H   00000BH   BYTE   UNIT     EDATA          ?ED?OLED_INT16_SPI?SEEKFREE_OLED
000F87H   000F90H   00000AH   BYTE   UNIT     EDATA          ?ED?IAP_READ_BYTES?ZF_EEPROM
L251 LINKER/LOCATER V4.66.93.0                                                        07/15/2024  23:31:17  PAGE 5


000F91H   000F9AH   00000AH   BYTE   UNIT     EDATA          ?ED?IAP_WRITE_BYTES?ZF_EEPROM
000F9BH   000FA4H   00000AH   BYTE   UNIT     EDATA          ?ED?UART_PUTBUFF?ZF_UART
000FA5H   000FAEH   00000AH   BYTE   UNIT     EDATA          ?ED?FIFO_WRITE_ELEMENT?ZF_FIFO
000FAFH   000FB8H   00000AH   BYTE   UNIT     EDATA          ?ED?LCD_SHOWSTR_SIMSPI?SEEKFREE_18TFT
000FB9H   000FC2H   00000AH   BYTE   UNIT     EDATA          ?ED?LCD_SHOWSTR?SEEKFREE_18TFT
000FC3H   000FCCH   00000AH   BYTE   UNIT     EDATA          ?ED?BLUETOOTH_CH9141_SEND_BUFF?SEEKFREE_BLUETOOTH_CH9141
000FCDH   000FD6H   00000AH   BYTE   UNIT     EDATA          ?ED?DL1A_SIMIIC_READ_REGS?SEEKFREE_DL1A
000FD7H   000FE0H   00000AH   BYTE   UNIT     EDATA          ?ED?DL1A_SIMIIC_READ_REGS_1?SEEKFREE_DL1A
000FE1H   000FEAH   00000AH   BYTE   UNIT     EDATA          ?ED?DL1A_ENCODE_TIMEOUT?SEEKFREE_DL1A
000FEBH   000FF4H   00000AH   BYTE   UNIT     EDATA          ?ED?IPS114_SHOWSTR_SIMSPI?SEEKFREE_IPS114_SPI
000FF5H   000FFEH   00000AH   BYTE   UNIT     EDATA          ?ED?IPS114_SHOWSTR?SEEKFREE_IPS114_SPI
000FFFH   001008H   00000AH   BYTE   UNIT     EDATA          ?ED?IPS200_SHOW_STRING?SEEKFREE_IPS200_SPI
001009H   001012H   00000AH   BYTE   UNIT     EDATA          ?ED?SEEKFREE_VIRSCO
001013H   00101CH   00000AH   BYTE   UNIT     EDATA          ?ED?I2C_RECVACK?IIC_IO
00101DH   001025H   000009H   BYTE   UNIT     EDATA          ?ED?LCD_SHOWINT8_SIMSPI?SEEKFREE_18TFT
001026H   00102EH   000009H   BYTE   UNIT     EDATA          ?ED?LCD_SHOWUINT8_SIMSPI?SEEKFREE_18TFT
00102FH   001037H   000009H   BYTE   UNIT     EDATA          ?ED?LCD_SHOWINT8?SEEKFREE_18TFT
001038H   001040H   000009H   BYTE   UNIT     EDATA          ?ED?LCD_SHOWUINT8?SEEKFREE_18TFT
001041H   001049H   000009H   BYTE   UNIT     EDATA          ?ED?DL1A_SIMIIC_WRITE_DATS?SEEKFREE_DL1A
00104AH   001052H   000009H   BYTE   UNIT     EDATA          ?ED?DL1A_TIMEOUT_MICROSECONDS_TO_MCLKS?SEEKFREE_DL1A
001053H   00105BH   000009H   BYTE   UNIT     EDATA          ?ED?DL1A_SET_SIGNAL_RATE_LIMIT?SEEKFREE_DL1A
00105CH   001064H   000009H   BYTE   UNIT     EDATA          ?ED?FUNC_STR_TO_INT?SEEKFREE_FUNCTION
001065H   00106DH   000009H   BYTE   UNIT     EDATA          ?ED?ICM20602_READ_REGISTERS?SEEKFREE_ICM20602
00106EH   001076H   000009H   BYTE   UNIT     EDATA          ?ED?IMU660RA_SIMSPI_W_REG_BYTES?SEEKFREE_IMU660RA
001077H   00107FH   000009H   BYTE   UNIT     EDATA          ?ED?IMU660RA_SIMSPI_R_REG_BYTES?SEEKFREE_IMU660RA
001080H   001088H   000009H   BYTE   UNIT     EDATA          ?ED?IMU660RA_WRITE_REGISTERS?SEEKFREE_IMU660RA
001089H   001091H   000009H   BYTE   UNIT     EDATA          ?ED?IMU660RA_READ_REGISTERS?SEEKFREE_IMU660RA
001092H   00109AH   000009H   BYTE   UNIT     EDATA          ?ED?IMU963RA_SIMSPI_R_REG_BYTES?SEEKFREE_IMU963RA
00109BH   0010A3H   000009H   BYTE   UNIT     EDATA          ?ED?IMU963RA_READ_ACC_GYRO_REGISTERS?SEEKFREE_IMU963RA
0010A4H   0010ACH   000009H   BYTE   UNIT     EDATA          ?ED?IPS114_SHOWINT8_SIMSPI?SEEKFREE_IPS114_SPI
0010ADH   0010B5H   000009H   BYTE   UNIT     EDATA          ?ED?IPS114_SHOWUINT8_SIMSPI?SEEKFREE_IPS114_SPI
0010B6H   0010BEH   000009H   BYTE   UNIT     EDATA          ?ED?IPS114_SHOWINT8?SEEKFREE_IPS114_SPI
0010BFH   0010C7H   000009H   BYTE   UNIT     EDATA          ?ED?IPS114_SHOWUINT8?SEEKFREE_IPS114_SPI
0010C8H   0010D0H   000009H   BYTE   UNIT     EDATA          ?ED?IPS200_SHOW_CHAR?SEEKFREE_IPS200_SPI
0010D1H   0010D9H   000009H   BYTE   UNIT     EDATA          ?ED?OLED_P6X8STR?SEEKFREE_OLED
0010DAH   0010E2H   000009H   BYTE   UNIT     EDATA          ?ED?OLED_P8X16STR?SEEKFREE_OLED
0010E3H   0010EBH   000009H   BYTE   UNIT     EDATA          ?ED?OLED_P6X8STR_SPI?SEEKFREE_OLED
0010ECH   0010F4H   000009H   BYTE   UNIT     EDATA          ?ED?OLED_P8X16STR_SPI?SEEKFREE_OLED
0010F5H   0010FDH   000009H   BYTE   UNIT     EDATA          ?ED?CRC_CHECK?SEEKFREE_VIRSCO
0010FEH   001106H   000009H   BYTE   UNIT     EDATA          ?ED?I2C_SENDBYTE?IIC_IO
001107H   00110FH   000009H   BYTE   UNIT     EDATA          ?ED?SEEKFREE_ASSISTANT_SUM?SEEKFREE_ASSISTANT
001110H   001117H   000008H   BYTE   UNIT     EDATA          ?ED?SET_CLK?BOARD
001118H   00111FH   000008H   BYTE   UNIT     EDATA          ?ED?FIFO_HEAD_OFFSET?ZF_FIFO
001120H   001127H   000008H   BYTE   UNIT     EDATA          ?ED?FIFO_END_OFFSET?ZF_FIFO
001128H   00112FH   000008H   BYTE   UNIT     EDATA          ?ED?LCD_SET_REGION_SIMSPI?SEEKFREE_18TFT
001130H   001137H   000008H   BYTE   UNIT     EDATA          ?ED?LCD_SHOWCHAR_SIMSPI?SEEKFREE_18TFT
001138H   00113FH   000008H   BYTE   UNIT     EDATA          ?ED?LCD_SET_REGION?SEEKFREE_18TFT
001140H   001147H   000008H   BYTE   UNIT     EDATA          ?ED?LCD_SHOWCHAR?SEEKFREE_18TFT
001148H   00114FH   000008H   BYTE   UNIT     EDATA          ?ED?FUNC_GET_GREATEST_COMMON_DIVISOR?SEEKFREE_FUNCTION
001150H   001157H   000008H   BYTE   UNIT     EDATA          ?ED?FUNC_STR_TO_UINT?SEEKFREE_FUNCTION
001158H   00115FH   000008H   BYTE   UNIT     EDATA          ?ED?IPS114_SET_REGION_SIMSPI?SEEKFREE_IPS114_SPI
001160H   001167H   000008H   BYTE   UNIT     EDATA          ?ED?IPS114_SHOWCHAR_SIMSPI?SEEKFREE_IPS114_SPI
001168H   00116FH   000008H   BYTE   UNIT     EDATA          ?ED?IPS114_SET_REGION?SEEKFREE_IPS114_SPI
001170H   001177H   000008H   BYTE   UNIT     EDATA          ?ED?IPS114_SHOWCHAR?SEEKFREE_IPS114_SPI
001178H   00117FH   000008H   BYTE   UNIT     EDATA          ?ED?IPS200_SET_REGION?SEEKFREE_IPS200_SPI
001180H   001187H   000008H   BYTE   UNIT     EDATA          ?ED?OLED_HEXASCII?SEEKFREE_OLED
001188H   00118FH   000008H   BYTE   UNIT     EDATA          ?ED?OLED_HEXASCII_SPI?SEEKFREE_OLED
001190H   001197H   000008H   BYTE   UNIT     EDATA          ?ED?WIRELESS_UART_SEND_BUFF?SEEKFREE_WIRELESS
001198H   00119FH   000008H   BYTE   UNIT     EDATA          ?ED?FORWARDFEED_L?MOTOR
0011A0H   0011A7H   000008H   BYTE   UNIT     EDATA          ?ED?FORWARDFEED_R?MOTOR
0011A8H   0011AFH   000008H   BYTE   UNIT     EDATA          ?ED?FORWARDFEED_TURN?MOTOR
0011B0H   0011B7H   000008H   BYTE   UNIT     EDATA          ?ED?POW2?ELEMENT
0011B8H   0011BFH   000008H   BYTE   UNIT     EDATA          ?ED?KEY
0011C0H   0011C7H   000008H   BYTE   UNIT     EDATA          ?ED?LUNAREADDIST?TF_LUNA
0011C8H   0011CFH   000008H   BYTE   UNIT     EDATA          ?ED?LUNAREADAMP?TF_LUNA
L251 LINKER/LOCATER V4.66.93.0                                                        07/15/2024  23:31:17  PAGE 6


0011D0H   0011D7H   000008H   BYTE   UNIT     EDATA          ?ED?LUNAREADTEMP?TF_LUNA
0011D8H   0011DEH   000007H   BYTE   UNIT     EDATA          ?ED?IIC_READ_REG_BYTES?ZF_IIC
0011DFH   0011E5H   000007H   BYTE   UNIT     EDATA          ?ED?SPI_INIT?ZF_SPI
0011E6H   0011ECH   000007H   BYTE   UNIT     EDATA          ?ED?DL1A_TIMEOUT_MCLKS_TO_MICROSECONDS?SEEKFREE_DL1A
0011EDH   0011F3H   000007H   BYTE   UNIT     EDATA          ?ED?IMU660RA_GET_ACC?SEEKFREE_IMU660RA
0011F4H   0011FAH   000007H   BYTE   UNIT     EDATA          ?ED?IMU660RA_GET_GYRO?SEEKFREE_IMU660RA
0011FBH   001201H   000007H   BYTE   UNIT     EDATA          ?ED?IMU963RA_GET_MAG?SEEKFREE_IMU963RA
001202H   001208H   000007H   BYTE   UNIT     EDATA          ?ED?MPU6050_SIMIIC_READ_REGS?SEEKFREE_MPU6050
001209H   00120FH   000007H   BYTE   UNIT     EDATA          ?ED?CCD_SEND_DATA?SEEKFREE_TSL1401
001210H   001216H   000007H   BYTE   UNIT     EDATA          ?ED?TF_LUNA
001217H   00121CH   000006H   BYTE   UNIT     EDATA          ?ED?ADC_ONCE?ZF_ADC
00121DH   001222H   000006H   BYTE   UNIT     EDATA          ?ED?DELAY_US?ZF_DELAY
001223H   001228H   000006H   BYTE   UNIT     EDATA          ?ED?IIC_INIT?ZF_IIC
001229H   00122EH   000006H   BYTE   UNIT     EDATA          ?ED?IIC_READ_REG?ZF_IIC
00122FH   001234H   000006H   BYTE   UNIT     EDATA          ?ED?PIT_TIMER_MS?ZF_TIM
001235H   00123AH   000006H   BYTE   UNIT     EDATA          ?ED?UART_PUTSTR?ZF_UART
00123BH   001240H   000006H   BYTE   UNIT     EDATA          ?ED?FIFO_CLEAR?ZF_FIFO
001241H   001246H   000006H   BYTE   UNIT     EDATA          ?ED?LCD_DRAWPOINT_SIMSPI?SEEKFREE_18TFT
001247H   00124CH   000006H   BYTE   UNIT     EDATA          ?ED?LCD_DRAWPOINT?SEEKFREE_18TFT
00124DH   001252H   000006H   BYTE   UNIT     EDATA          ?ED?ICM20602_GET_ACC?SEEKFREE_ICM20602
001253H   001258H   000006H   BYTE   UNIT     EDATA          ?ED?ICM20602_GET_GYRO?SEEKFREE_ICM20602
001259H   00125EH   000006H   BYTE   UNIT     EDATA          ?ED?ICM20602_ACC_TRANSITION?SEEKFREE_ICM20602
00125FH   001264H   000006H   BYTE   UNIT     EDATA          ?ED?ICM20602_GYRO_TRANSITION?SEEKFREE_ICM20602
001265H   00126AH   000006H   BYTE   UNIT     EDATA          ?ED?IMU660RA_ACC_TRANSITION?SEEKFREE_IMU660RA
00126BH   001270H   000006H   BYTE   UNIT     EDATA          ?ED?IMU660RA_GYRO_TRANSITION?SEEKFREE_IMU660RA
001271H   001276H   000006H   BYTE   UNIT     EDATA          ?ED?IMU963RA_WRITE_MAG_REGISTER?SEEKFREE_IMU963RA
001277H   00127CH   000006H   BYTE   UNIT     EDATA          ?ED?IMU963RA_GET_ACC?SEEKFREE_IMU963RA
00127DH   001282H   000006H   BYTE   UNIT     EDATA          ?ED?IMU963RA_GET_GYRO?SEEKFREE_IMU963RA
001283H   001288H   000006H   BYTE   UNIT     EDATA          ?ED?IMU963RA_ACC_TRANSITION?SEEKFREE_IMU963RA
001289H   00128EH   000006H   BYTE   UNIT     EDATA          ?ED?IMU963RA_GYRO_TRANSITION?SEEKFREE_IMU963RA
00128FH   001294H   000006H   BYTE   UNIT     EDATA          ?ED?IMU963RA_MAG_TRANSITION?SEEKFREE_IMU963RA
001295H   00129AH   000006H   BYTE   UNIT     EDATA          ?ED?IPS114_CLEAR_SIMSPI?SEEKFREE_IPS114_SPI
00129BH   0012A0H   000006H   BYTE   UNIT     EDATA          ?ED?IPS114_DRAWPOINT_SIMSPI?SEEKFREE_IPS114_SPI
0012A1H   0012A6H   000006H   BYTE   UNIT     EDATA          ?ED?IPS114_CLEAR?SEEKFREE_IPS114_SPI
0012A7H   0012ACH   000006H   BYTE   UNIT     EDATA          ?ED?IPS114_DRAWPOINT?SEEKFREE_IPS114_SPI
0012ADH   0012B2H   000006H   BYTE   UNIT     EDATA          ?ED?IPS200_FULL?SEEKFREE_IPS200_SPI
0012B3H   0012B8H   000006H   BYTE   UNIT     EDATA          ?ED?IPS200_DRAW_POINT?SEEKFREE_IPS200_SPI
0012B9H   0012BEH   000006H   BYTE   UNIT     EDATA          ?ED?MPU6050_GET_ACCDATA?SEEKFREE_MPU6050
0012BFH   0012C4H   000006H   BYTE   UNIT     EDATA          ?ED?MPU6050_GET_GYRO?SEEKFREE_MPU6050
0012C5H   0012CAH   000006H   BYTE   UNIT     EDATA          ?ED?I2C_DUMMYWRITE?IIC_IO
0012CBH   0012CFH   000005H   BYTE   UNIT     EDATA          ?ED?ZF_UART
0012D0H   0012D4H   000005H   BYTE   UNIT     EDATA          ?ED?SIMSPI_R_REG_BYTE?SEEKFREE_ABSOLUTE_ENCODER
0012D5H   0012D9H   000005H   BYTE   UNIT     EDATA          ?ED?ENCODER_SIMSPI_R_REG_BYTE?SEEKFREE_ABSOLUTE_ENCODER
0012DAH   0012DEH   000005H   BYTE   UNIT     EDATA          ?ED?SPI_R_REG_BYTE?SEEKFREE_ABSOLUTE_ENCODER
0012DFH   0012E3H   000005H   BYTE   UNIT     EDATA          ?ED?ENCODER_SPI_R_REG_BYTE?SEEKFREE_ABSOLUTE_ENCODER
0012E4H   0012E8H   000005H   BYTE   UNIT     EDATA          ?ED?DL1A_GET_SEQUENCE_STEP_ENABLES?SEEKFREE_DL1A
0012E9H   0012EDH   000005H   BYTE   UNIT     EDATA          ?ED?DL1A_PERFORM_SINGLE_REF_CALIBRATION?SEEKFREE_DL1A
0012EEH   0012F2H   000005H   BYTE   UNIT     EDATA          ?ED?DL1B_GET_DISTANCE?SEEKFREE_DL1B
0012F3H   0012F7H   000005H   BYTE   UNIT     EDATA          ?ED?ICM20602_SIMSPI_R_REG_BYTE?SEEKFREE_ICM20602
0012F8H   0012FCH   000005H   BYTE   UNIT     EDATA          ?ED?IMU963RA_SIMSPI_R_REG_BYTE?SEEKFREE_IMU963RA
0012FDH   001300H   000004H   BYTE   UNIT     EDATA          ?ED?BOARD
001301H   001304H   000004H   BYTE   UNIT     EDATA          ?ED?CLOCK_INIT?BOARD
001305H   001308H   000004H   BYTE   UNIT     EDATA          ?ED?ADC_INIT?ZF_ADC
001309H   00130CH   000004H   BYTE   UNIT     EDATA          ?ED?ZF_DELAY
00130DH   001310H   000004H   BYTE   UNIT     EDATA          ?ED?DELAY_MS?ZF_DELAY
001311H   001314H   000004H   BYTE   UNIT     EDATA          ?ED?IAP_ERASE_PAGE?ZF_EEPROM
001315H   001318H   000004H   BYTE   UNIT     EDATA          ?ED?EXIT_INIT?ZF_EXTI
001319H   00131CH   000004H   BYTE   UNIT     EDATA          ?ED?GPIO_PULL_SET?ZF_GPIO
00131DH   001320H   000004H   BYTE   UNIT     EDATA          ?ED?GPIO_MODE?ZF_GPIO
001321H   001324H   000004H   BYTE   UNIT     EDATA          ?ED?CTIMER_COUNT_READ?ZF_TIM
001325H   001328H   000004H   BYTE   UNIT     EDATA          ?ED?FIFO_USED?ZF_FIFO
001329H   00132CH   000004H   BYTE   UNIT     EDATA          ?ED?LCD_CLEAR_SIMSPI?SEEKFREE_18TFT
00132DH   001330H   000004H   BYTE   UNIT     EDATA          ?ED?LCD_WRITEDATA_16BIT?SEEKFREE_18TFT
001331H   001334H   000004H   BYTE   UNIT     EDATA          ?ED?LCD_CLEAR?SEEKFREE_18TFT
001335H   001338H   000004H   BYTE   UNIT     EDATA          ?ED?SEEKFREE_DL1B
L251 LINKER/LOCATER V4.66.93.0                                                        07/15/2024  23:31:17  PAGE 7


001339H   00133CH   000004H   BYTE   UNIT     EDATA          ?ED?FUNC_SOFT_DELAY?SEEKFREE_FUNCTION
00133DH   001340H   000004H   BYTE   UNIT     EDATA          ?ED?ICM20602_SELF_CHECK?SEEKFREE_ICM20602
001341H   001344H   000004H   BYTE   UNIT     EDATA          ?ED?ICM20602_INIT?SEEKFREE_ICM20602
001345H   001348H   000004H   BYTE   UNIT     EDATA          ?ED?IMU660RA_SELF_CHECK?SEEKFREE_IMU660RA
001349H   00134CH   000004H   BYTE   UNIT     EDATA          ?ED?IMU963RA_READ_MAG_REGISTER?SEEKFREE_IMU963RA
00134DH   001350H   000004H   BYTE   UNIT     EDATA          ?ED?IMU963RA_ACC_GYRO_SELF_CHECK?SEEKFREE_IMU963RA
001351H   001354H   000004H   BYTE   UNIT     EDATA          ?ED?IMU963RA_MAG_SELF_CHECK?SEEKFREE_IMU963RA
001355H   001358H   000004H   BYTE   UNIT     EDATA          ?ED?IPS114_WRITEDATA_16BIT?SEEKFREE_IPS114_SPI
001359H   00135CH   000004H   BYTE   UNIT     EDATA          ?ED?IPS200_WRITE_16BIT_DATA_SPI?SEEKFREE_IPS200_SPI
00135DH   001360H   000004H   BYTE   UNIT     EDATA          ?ED?IPS200_CLEAR?SEEKFREE_IPS200_SPI
001361H   001364H   000004H   BYTE   UNIT     EDATA          ?ED?IPS200_SET_COLOR?SEEKFREE_IPS200_SPI
001365H   001368H   000004H   BYTE   UNIT     EDATA          ?ED?PID_INIT?CONTROL
001369H   00136CH   000004H   BYTE   UNIT     EDATA          ?ED?SEEKFREE_ASSISTANT_INFACE
00136DH   00136FH   000003H   BYTE   UNIT     EDATA          ?ED?IIC_DELAY_US?ZF_IIC
001370H   001372H   000003H   BYTE   UNIT     EDATA          ?ED?WAIT?ZF_IIC
001373H   001375H   000003H   BYTE   UNIT     EDATA          ?ED?IIC_WRITE_REG?ZF_IIC
001376H   001378H   000003H   BYTE   UNIT     EDATA          ?ED?NVIC_SETPRIORITY?ZF_NVIC
001379H   00137BH   000003H   BYTE   UNIT     EDATA          ?ED?UART_PUTCHAR?ZF_UART
00137CH   00137EH   000003H   BYTE   UNIT     EDATA          ?ED?LCD_WRITEDATA_16BIT_SIMSPI?SEEKFREE_18TFT
00137FH   001381H   000003H   BYTE   UNIT     EDATA          ?ED?ENCODER_SIMSPI_W_REG_BYTE?SEEKFREE_ABSOLUTE_ENCODER
001382H   001384H   000003H   BYTE   UNIT     EDATA          ?ED?ENCODER_SPI_W_REG_BYTE?SEEKFREE_ABSOLUTE_ENCODER
001385H   001387H   000003H   BYTE   UNIT     EDATA          ?ED?SEEKFREE_DL1A
001388H   00138AH   000003H   BYTE   UNIT     EDATA          ?ED?DL1A_READ_CH?SEEKFREE_DL1A
00138BH   00138DH   000003H   BYTE   UNIT     EDATA          ?ED?DL1A_SIMIIC_WRITE_REG?SEEKFREE_DL1A
00138EH   001390H   000003H   BYTE   UNIT     EDATA          ?ED?DL1A_SIMIIC_READ_REG?SEEKFREE_DL1A
001391H   001393H   000003H   BYTE   UNIT     EDATA          ?ED?DL1A_GET_VCSEL_PULSE_PERIOD?SEEKFREE_DL1A
001394H   001396H   000003H   BYTE   UNIT     EDATA          ?ED?DL1A_GET_DISTANCE?SEEKFREE_DL1A
001397H   001399H   000003H   BYTE   UNIT     EDATA          ?ED?DL1B_READ_CH?SEEKFREE_DL1B
00139AH   00139CH   000003H   BYTE   UNIT     EDATA          ?ED?IMU660RA_READ_REGISTER?SEEKFREE_IMU660RA
00139DH   00139FH   000003H   BYTE   UNIT     EDATA          ?ED?IPS114_WRITEDATAI_16BIT_SIMSPI?SEEKFREE_IPS114_SPI
0013A0H   0013A2H   000003H   BYTE   UNIT     EDATA          ?ED?MPU6050_READ_CH?SEEKFREE_MPU6050
0013A3H   0013A5H   000003H   BYTE   UNIT     EDATA          ?ED?MPU6050_SIMIIC_WRITE_REG?SEEKFREE_MPU6050
0013A6H   0013A8H   000003H   BYTE   UNIT     EDATA          ?ED?MPU6050_SIMIIC_READ_REG?SEEKFREE_MPU6050
0013A9H   0013ABH   000003H   BYTE   UNIT     EDATA          ?ED?OLED_FILL?SEEKFREE_OLED
0013ACH   0013AEH   000003H   BYTE   UNIT     EDATA          ?ED?OLED_PUTPIXEL?SEEKFREE_OLED
0013AFH   0013B1H   000003H   BYTE   UNIT     EDATA          ?ED?OLED_FILL_SPI?SEEKFREE_OLED
0013B2H   0013B4H   000003H   BYTE   UNIT     EDATA          ?ED?OLED_PUTPIXEL_SPI?SEEKFREE_OLED
0013B5H   0013B6H   000002H   BYTE   UNIT     EDATA          ?ED?COMMON
0013B7H   0013B8H   000002H   BYTE   UNIT     EDATA          ?ED?SEND_DATA?ZF_IIC
0013B9H   0013BAH   000002H   BYTE   UNIT     EDATA          ?ED?IIC_CHANGE_PIN?ZF_IIC
0013BBH   0013BCH   000002H   BYTE   UNIT     EDATA          ?ED?PWM_SET_GPIO?ZF_PWM
0013BDH   0013BEH   000002H   BYTE   UNIT     EDATA          ?ED?SPI_CHANGE_PIN?ZF_SPI
0013BFH   0013C0H   000002H   BYTE   UNIT     EDATA          ?ED?CTIMER_COUNT_INIT?ZF_TIM
0013C1H   0013C2H   000002H   BYTE   UNIT     EDATA          ?ED?CTIMER_COUNT_CLEAN?ZF_TIM
0013C3H   0013C4H   000002H   BYTE   UNIT     EDATA          ?ED?LCD_WRITEINDEX_SIMSPI?SEEKFREE_18TFT
0013C5H   0013C6H   000002H   BYTE   UNIT     EDATA          ?ED?LCD_WRITEDATA_SIMSPI?SEEKFREE_18TFT
0013C7H   0013C8H   000002H   BYTE   UNIT     EDATA          ?ED?ENCODER_DELAY_US?SEEKFREE_ABSOLUTE_ENCODER
0013C9H   0013CAH   000002H   BYTE   UNIT     EDATA          ?ED?SIMSPI_WR_BYTE?SEEKFREE_ABSOLUTE_ENCODER
0013CBH   0013CCH   000002H   BYTE   UNIT     EDATA          ?ED?SIMSPI_W_REG_BYTE?SEEKFREE_ABSOLUTE_ENCODER
0013CDH   0013CEH   000002H   BYTE   UNIT     EDATA          ?ED?SET_ZERO_POSITION_SIMSPI?SEEKFREE_ABSOLUTE_ENCODER
0013CFH   0013D0H   000002H   BYTE   UNIT     EDATA          ?ED?ENCODER_ANGLE_SIMSPI?SEEKFREE_ABSOLUTE_ENCODER
0013D1H   0013D2H   000002H   BYTE   UNIT     EDATA          ?ED?SPI_W_REG_BYTE?SEEKFREE_ABSOLUTE_ENCODER
0013D3H   0013D4H   000002H   BYTE   UNIT     EDATA          ?ED?SET_ZERO_POSITION_SPI?SEEKFREE_ABSOLUTE_ENCODER
0013D5H   0013D6H   000002H   BYTE   UNIT     EDATA          ?ED?ENCODER_ANGLE_SPI?SEEKFREE_ABSOLUTE_ENCODER
0013D7H   0013D8H   000002H   BYTE   UNIT     EDATA          ?ED?DL1A_SIMIIC_DELAY?SEEKFREE_DL1A
0013D9H   0013DAH   000002H   BYTE   UNIT     EDATA          ?ED?DL1A_SEND_CH?SEEKFREE_DL1A
0013DBH   0013DCH   000002H   BYTE   UNIT     EDATA          ?ED?DL1A_DECODE_TIMEOUT?SEEKFREE_DL1A
0013DDH   0013DEH   000002H   BYTE   UNIT     EDATA          ?ED?DL1B_SIMIIC_DELAY?SEEKFREE_DL1B
0013DFH   0013E0H   000002H   BYTE   UNIT     EDATA          ?ED?DL1B_SEND_CH?SEEKFREE_DL1B
0013E1H   0013E2H   000002H   BYTE   UNIT     EDATA          ?ED?ICM20602_SIMSPI_WR_BYTE?SEEKFREE_ICM20602
0013E3H   0013E4H   000002H   BYTE   UNIT     EDATA          ?ED?ICM20602_SIMSPI_W_REG_BYTE?SEEKFREE_ICM20602
0013E5H   0013E6H   000002H   BYTE   UNIT     EDATA          ?ED?ICM20602_WRITE_REGISTER?SEEKFREE_ICM20602
0013E7H   0013E8H   000002H   BYTE   UNIT     EDATA          ?ED?ICM20602_READ_REGISTER?SEEKFREE_ICM20602
0013E9H   0013EAH   000002H   BYTE   UNIT     EDATA          ?ED?IMU660RA_SIMSPI_WR_BYTE?SEEKFREE_IMU660RA
0013EBH   0013ECH   000002H   BYTE   UNIT     EDATA          ?ED?IMU660RA_SIMSPI_W_REG_BYTE?SEEKFREE_IMU660RA
L251 LINKER/LOCATER V4.66.93.0                                                        07/15/2024  23:31:17  PAGE 8


0013EDH   0013EEH   000002H   BYTE   UNIT     EDATA          ?ED?IMU660RA_WRITE_REGISTER?SEEKFREE_IMU660RA
0013EFH   0013F0H   000002H   BYTE   UNIT     EDATA          ?ED?IMU963RA_SIMSPI_WR_BYTE?SEEKFREE_IMU963RA
0013F1H   0013F2H   000002H   BYTE   UNIT     EDATA          ?ED?IMU963RA_SIMSPI_W_REG_BYTE?SEEKFREE_IMU963RA
0013F3H   0013F4H   000002H   BYTE   UNIT     EDATA          ?ED?IMU963RA_WRITE_ACC_GYRO_REGISTER?SEEKFREE_IMU963RA
0013F5H   0013F6H   000002H   BYTE   UNIT     EDATA          ?ED?IMU963RA_READ_ACC_GYRO_REGISTER?SEEKFREE_IMU963RA
0013F7H   0013F8H   000002H   BYTE   UNIT     EDATA          ?ED?IMU963RA_CONNECT_MAG?SEEKFREE_IMU963RA
0013F9H   0013FAH   000002H   BYTE   UNIT     EDATA          ?ED?IPS114_WRITEINDEX_SIMSPI?SEEKFREE_IPS114_SPI
0013FBH   0013FCH   000002H   BYTE   UNIT     EDATA          ?ED?IPS114_WRITEDATA_SIMSPI?SEEKFREE_IPS114_SPI
0013FDH   0013FEH   000002H   BYTE   UNIT     EDATA          ?ED?IPS200_WRITE_16BIT_DATA?SEEKFREE_IPS200_SPI
0013FFH   001400H   000002H   BYTE   UNIT     EDATA          ?ED?IPS200_SET_DIR?SEEKFREE_IPS200_SPI
001401H   001402H   000002H   BYTE   UNIT     EDATA          ?ED?IPS200_SET_FONT?SEEKFREE_IPS200_SPI
001403H   001404H   000002H   BYTE   UNIT     EDATA          ?ED?MPU6050_SIMIIC_DELAY?SEEKFREE_MPU6050
001405H   001406H   000002H   BYTE   UNIT     EDATA          ?ED?MPU6050_SEND_CH?SEEKFREE_MPU6050
001407H   001408H   000002H   BYTE   UNIT     EDATA          ?ED?OLED_WRDAT?SEEKFREE_OLED
001409H   00140AH   000002H   BYTE   UNIT     EDATA          ?ED?OLED_WRCMD?SEEKFREE_OLED
00140BH   00140CH   000002H   BYTE   UNIT     EDATA          ?ED?OLED_SET_POS?SEEKFREE_OLED
00140DH   00140EH   000002H   BYTE   UNIT     EDATA          ?ED?OLED_CLRPIXEL?SEEKFREE_OLED
00140FH   001410H   000002H   BYTE   UNIT     EDATA          ?ED?OLED_SET_POS_SPI?SEEKFREE_OLED
001411H   001412H   000002H   BYTE   UNIT     EDATA          ?ED?OLED_CLRPIXEL_SPI?SEEKFREE_OLED
001413H   001414H   000002H   BYTE   UNIT     EDATA          ?ED?I2C_GENERATEACK?IIC_IO
001415H   001416H   000002H   BYTE   UNIT     EDATA          ?ED?MAIN
001417H   001417H   000001H   BYTE   UNIT     EDATA          ?ED?PUTCHAR?BOARD
001418H   001418H   000001H   BYTE   UNIT     EDATA          ?ED?IAP_SET_TPS?ZF_EEPROM
001419H   001419H   000001H   BYTE   UNIT     EDATA          ?ED?START?ZF_IIC
00141AH   00141AH   000001H   BYTE   UNIT     EDATA          ?ED?RECV_ACK?ZF_IIC
00141BH   00141BH   000001H   BYTE   UNIT     EDATA          ?ED?SEND_ACK?ZF_IIC
00141CH   00141CH   000001H   BYTE   UNIT     EDATA          ?ED?STOP?ZF_IIC
00141DH   00141DH   000001H   BYTE   UNIT     EDATA          ?ED?SPI_MOSI?ZF_SPI
00141EH   00141EH   000001H   BYTE   UNIT     EDATA          ?ED?SPI_CHANGE_MODE?ZF_SPI
00141FH   00141FH   000001H   BYTE   UNIT     EDATA          ?ED?LCD_WRITEINDEX?SEEKFREE_18TFT
001420H   001420H   000001H   BYTE   UNIT     EDATA          ?ED?LCD_WRITEDATA?SEEKFREE_18TFT
001421H   001421H   000001H   BYTE   UNIT     EDATA          ?ED?ENCODER_SELF4_CHECK?SEEKFREE_ABSOLUTE_ENCODER
001422H   001422H   000001H   BYTE   UNIT     EDATA          ?ED?SPI_WR_BYTE?SEEKFREE_ABSOLUTE_ENCODER
001423H   001423H   000001H   BYTE   UNIT     EDATA          ?ED?ENCODER_SELF5_CHECK?SEEKFREE_ABSOLUTE_ENCODER
001424H   001424H   000001H   BYTE   UNIT     EDATA          ?ED?DL1A_SIMIIC_SENDACK?SEEKFREE_DL1A
001425H   001425H   000001H   BYTE   UNIT     EDATA          ?ED?DL1B_SIMIIC_SENDACK?SEEKFREE_DL1B
001426H   001426H   000001H   BYTE   UNIT     EDATA          ?ED?IMU660RA_INIT?SEEKFREE_IMU660RA
001427H   001427H   000001H   BYTE   UNIT     EDATA          ?ED?IMU963RA_INIT?SEEKFREE_IMU963RA
001428H   001428H   000001H   BYTE   UNIT     EDATA          ?ED?IPS114_WRITEINDEX?SEEKFREE_IPS114_SPI
001429H   001429H   000001H   BYTE   UNIT     EDATA          ?ED?IPS114_WRITEDATA?SEEKFREE_IPS114_SPI
00142AH   00142AH   000001H   BYTE   UNIT     EDATA          ?ED?IPS200_WRITE_8BIT_DATA_SPI?SEEKFREE_IPS200_SPI
00142BH   00142BH   000001H   BYTE   UNIT     EDATA          ?ED?IPS200_WRITE_COMMAND?SEEKFREE_IPS200_SPI
00142CH   00142CH   000001H   BYTE   UNIT     EDATA          ?ED?IPS200_WRITE_8BIT_DATA?SEEKFREE_IPS200_SPI
00142DH   00142DH   000001H   BYTE   UNIT     EDATA          ?ED?MPU6050_SIMIIC_SENDACK?SEEKFREE_MPU6050
00142EH   00142EH   000001H   BYTE   UNIT     EDATA          ?ED?OLED_WRDAT_SPI?SEEKFREE_OLED
00142FH   00142FH   000001H   BYTE   UNIT     EDATA          ?ED?OLED_WRCMD_SPI?SEEKFREE_OLED
001430H   001430H   000001H   BYTE   UNIT     EDATA          ?ED?CCD_COLLECT?SEEKFREE_TSL1401
001431H   001431H   000001H   BYTE   UNIT     EDATA          ?ED?WIRELESS_UART_SEND_BYTE?SEEKFREE_WIRELESS
001432H   001432H   000001H   BYTE   UNIT     EDATA          ?ED?UART1_ISR?ISR
001433H   001532H   000100H   BYTE   UNIT     EDATA          ?STACK
001533H   FEFFFFH   FEEACDH   ---    ---      **GAP**
FF0000H   FF0002H   000003H   ---    OFFS..   CODE           ?CO?start251?4
FF0003H   FF0005H   000003H   ---    OFFS..   CODE           ?PR?IV?0
FF0006H   FF0009H   000004H   BYTE   INSEG    CODE           ?PR?ENABLEGLOBALIRQ?BOARD
FF000AH   FF000AH   000001H   BYTE   INSEG    CODE           ?PR?INT1_ISR?ISR
FF000BH   FF000DH   000003H   ---    OFFS..   CODE           ?PR?IV?1
FF000EH   FF0011H   000004H   BYTE   INSEG    CODE           ?PR?DISABLEGLOBALIRQ?BOARD
FF0012H   FF0012H   000001H   BYTE   INSEG    CODE           ?PR?TM0_ISR?ISR
FF0013H   FF0015H   000003H   ---    OFFS..   CODE           ?PR?IV?2
FF0016H   FF0019H   000004H   BYTE   UNIT     CODE           ?PR?FPADD?STC32F_FPMU
FF001AH   FF001AH   000001H   ---    ---      **GAP**
FF001BH   FF001DH   000003H   ---    OFFS..   CODE           ?PR?IV?3
FF001EH   FF0021H   000004H   BYTE   UNIT     CODE           ?PR?FPSUB?STC32F_FPMU
FF0022H   FF0022H   000001H   ---    ---      **GAP**
FF0023H   FF0025H   000003H   ---    OFFS..   CODE           ?PR?IV?4
L251 LINKER/LOCATER V4.66.93.0                                                        07/15/2024  23:31:17  PAGE 9


FF0026H   FF0040H   00001BH   BYTE   INSEG    CODE           ?PR?IMU660RA_SIMSPI_W_REG_BYTE?SEEKFREE_IMU660RA
FF0041H   FF0042H   000002H   ---    ---      **GAP**
FF0043H   FF0045H   000003H   ---    OFFS..   CODE           ?PR?IV?8
FF0046H   FF0051H   00000CH   BYTE   UNIT     CODE           ?PR?FPCMP?STC32F_FPMU
FF0052H   FF0052H   000001H   ---    ---      **GAP**
FF0053H   FF0055H   000003H   ---    OFFS..   CODE           ?PR?IV?10
FF0056H   FF0059H   000004H   BYTE   UNIT     CODE           ?PR?FPMUL?STC32F_FPMU
FF005AH   FF005AH   000001H   ---    ---      **GAP**
FF005BH   FF005DH   000003H   ---    OFFS..   CODE           ?PR?IV?11
FF005EH   FF0061H   000004H   BYTE   UNIT     CODE           ?PR?FPDIV?STC32F_FPMU
FF0062H   FF0062H   000001H   ---    ---      **GAP**
FF0063H   FF0065H   000003H   ---    OFFS..   CODE           ?PR?IV?12
FF0066H   FF007FH   00001AH   BYTE   INSEG    CODE           ?PR?BLUETOOTH_CH9141_UART_CALLBACK?SEEKFREE_BLUETOOTH_CH91
                                                             -41
FF0080H   FF0082H   000003H   ---    ---      **GAP**
FF0083H   FF0085H   000003H   ---    OFFS..   CODE           ?PR?IV?16
FF0086H   FF0089H   000004H   BYTE   UNIT     CODE           ?PR?SQRT?STC32F_FPMU
FF008AH   FF008AH   000001H   ---    ---      **GAP**
FF008BH   FF008DH   000003H   ---    OFFS..   CODE           ?PR?IV?17
FF008EH   FF0091H   000004H   BYTE   UNIT     CODE           ?PR?FCASTL?STC32F_FPMU
FF0092H   FF0092H   000001H   ---    ---      **GAP**
FF0093H   FF0095H   000003H   ---    OFFS..   CODE           ?PR?IV?18
FF0096H   FF0099H   000004H   BYTE   INSEG    CODE           ?PR?INT0_ISR?ISR
FF009AH   FF009AH   000001H   ---    ---      **GAP**
FF009BH   FF009DH   000003H   ---    OFFS..   CODE           ?PR?IV?19
FF009EH   FF00A1H   000004H   BYTE   INSEG    CODE           ?PR?INT2_ISR?ISR
FF00A2H   FF00A2H   000001H   ---    ---      **GAP**
FF00A3H   FF00A5H   000003H   ---    OFFS..   CODE           ?PR?IV?20
FF00A6H   FF212CH   002087H   BYTE   UNIT     CODE           ?CO?SEEKFREE_CONFIG
FF212DH   FF374CH   001620H   BYTE   UNIT     CODE           ?CO?SEEKFREE_FONT
FF374DH   FF4525H   000DD9H   BYTE   INSEG    CODE           ?PR?MULTISTAGE_PID?MOTOR
FF4526H   FF4FB1H   000A8CH   BYTE   INSEG    CODE           ?PR?IPS_PAGE_SHOW?OLED
FF4FB2H   FF58FAH   000949H   BYTE   INSEG    CODE           ?PR?JUDGE?ELEMENT
FF58FBH   FF6207H   00090DH   BYTE   INSEG    CODE           ?PR?GPIO_MODE?ZF_GPIO
FF6208H   FF68F7H   0006F0H   BYTE   UNIT     CODE           ?C?LIB_CODE
FF68F8H   FF6F56H   00065FH   BYTE   INSEG    CODE           ?PR?MOTOR?MOTOR
FF6F57H   FF7582H   00062CH   BYTE   INSEG    CODE           ?PR?SET_CLK?BOARD
FF7583H   FF795CH   0003DAH   BYTE   INSEG    CODE           ?PR?PWM_INIT?ZF_PWM
FF795DH   FF7CEEH   000392H   BYTE   INSEG    CODE           ?PR?FIFO_WRITE_BUFFER?ZF_FIFO
FF7CEFH   FF7FFAH   00030CH   BYTE   INSEG    CODE           ?PR?PWM_SET_GPIO?ZF_PWM
FF7FFBH   FF82ADH   0002B3H   BYTE   INSEG    CODE           ?PR?UART_INIT?ZF_UART
FF82AEH   FF84D0H   000223H   BYTE   INSEG    CODE           ?PR?KEY?KEY
FF84D1H   FF86DDH   00020DH   BYTE   INSEG    CODE           ?PR?TM1_ISR?ISR
FF86DEH   FF8861H   000184H   BYTE   INSEG    CODE           ?PR?YUANHUAN?ELEMENT
FF8862H   FF89D7H   000176H   BYTE   INSEG    CODE           ?PR?IPS114_INIT?SEEKFREE_IPS114_SPI
FF89D8H   FF8B29H   000152H   BYTE   INSEG    CODE           ?PR?CAR_PRE_INIT?INIT
FF8B2AH   FF8C71H   000148H   BYTE   INSEG    CODE           ?PR?TURN_PSTPID?CONTROL
FF8C72H   FF8DAEH   00013DH   BYTE   INSEG    CODE           ?PR?GET_ADC?INIT
FF8DAFH   FF8ECBH   00011DH   BYTE   INSEG    CODE           ?PR?INCPID?CONTROL
FF8ECCH   FF8FE3H   000118H   BYTE   INSEG    CODE           ?PR?PWM_DUTY?ZF_PWM
FF8FE4H   FF90F8H   000115H   BYTE   INSEG    CODE           ?PR?IPS114_SHOWINT16?SEEKFREE_IPS114_SPI
FF90F9H   FF91EDH   0000F5H   BYTE   INSEG    CODE           ?PR?SPI_INIT?ZF_SPI
FF91EEH   FF92D2H   0000E5H   BYTE   INSEG    CODE           ?PR?PIT_TIMER_MS?ZF_TIM
FF92D3H   FF93ACH   0000DAH   BYTE   INSEG    CODE           ?PR?GYROOFFSETINIT?INIT
FF93ADH   FF946BH   0000BFH   BYTE   INSEG    CODE           ?PR?IPS114_SHOWCHAR?SEEKFREE_IPS114_SPI
FF946CH   FF9528H   0000BDH   BYTE   INSEG    CODE           ?PR?I2C_RECVBYTES?IIC_IO
FF9529H   FF95DDH   0000B5H   BYTE   INSEG    CODE           ?PR?ADC_INIT?ZF_ADC
FF95DEH   FF9691H   0000B4H   BYTE   INSEG    CODE           ?PR?CTIMER_COUNT_READ?ZF_TIM
FF9692H   FF973BH   0000AAH   BYTE   INSEG    CODE           ?PR?IMU660RA_INIT?SEEKFREE_IMU660RA
FF973CH   FF97E3H   0000A8H   BYTE   INSEG    CODE           ?PR?IMU660RA_GYRO_TRANSITION?SEEKFREE_IMU660RA
FF97E4H   FF986AH   000087H   BYTE   INSEG    CODE           ?PR?PID_INIT?CONTROL
FF986BH   FF98ECH   000082H   BYTE   INSEG    CODE           ?PR?I2C_RECVBYTE?IIC_IO
FF98EDH   FF9963H   000077H   BYTE   INSEG    CODE           ?PR?BOARD_INIT?BOARD
FF9964H   FF99D8H   000075H   BYTE   INSEG    CODE           ?PR?UART_PUTCHAR?ZF_UART
FF99D9H   FF9A48H   000070H   BYTE   INSEG    CODE           ?PR?FIFO_HEAD_OFFSET?ZF_FIFO
L251 LINKER/LOCATER V4.66.93.0                                                        07/15/2024  23:31:17  PAGE 10


FF9A49H   FF9AB4H   00006CH   BYTE   INSEG    CODE           ?PR?I2C_SENDBYTE?IIC_IO
FF9AB5H   FF9B1EH   00006AH   BYTE   INSEG    CODE           ?PR?I2C_RECVACK?IIC_IO
FF9B1FH   FF9B7DH   00005FH   BYTE   INSEG    CODE           ?PR?IPS114_CLEAR?SEEKFREE_IPS114_SPI
FF9B7EH   FF9BDBH   00005EH   BYTE   INSEG    CODE           ?PR?UART4_ISR?ISR
FF9BDCH   FF9C38H   00005DH   BYTE   INSEG    CODE           ?PR?CTIMER_COUNT_CLEAN?ZF_TIM
FF9C39H   FF9C95H   00005DH   BYTE   INSEG    CODE           ?PR?IPS114_SHOWSTR?SEEKFREE_IPS114_SPI
FF9C96H   FF9CEEH   000059H   BYTE   INSEG    CODE           ?PR?IMU660RA_SIMSPI_WR_BYTE?SEEKFREE_IMU660RA
FF9CEFH   FF9D44H   000056H   BYTE   INSEG    CODE           ?PR?ADC_ONCE?ZF_ADC
FF9D45H   FF9D98H   000054H   BYTE   INSEG    CODE           ?PR?CTIMER_COUNT_INIT?ZF_TIM
FF9D99H   FF9DECH   000054H   BYTE   INSEG    CODE           ?PR?IPS114_SET_REGION?SEEKFREE_IPS114_SPI
FF9DEDH   FF9E3CH   000050H   BYTE   INSEG    CODE           ?PR?IMU660RA_GET_GYRO?SEEKFREE_IMU660RA
FF9E3DH   FF9E8CH   000050H   BYTE   INSEG    CODE           ?PR?IMU660RA_GET_ACC?SEEKFREE_IMU660RA
FF9E8DH   FF9EDBH   00004FH   BYTE   INSEG    CODE           ?PR?PID_TURNSET?CONTROL
FF9EDCH   FF9F28H   00004DH   BYTE   INSEG    CODE           ?PR?LUNAREADDIST?TF_LUNA
FF9F29H   FF9F74H   00004CH   BYTE   INSEG    CODE           ?PR?I2C_DUMMYWRITE?IIC_IO
FF9F75H   FF9FBFH   00004BH   BYTE   INSEG    CODE           ?PR?IMU660RA_SELF_CHECK?SEEKFREE_IMU660RA
FF9FC0H   FFA00AH   00004BH   BYTE   INSEG    CODE           ?PR?IMU660RA_SIMSPI_R_REG_BYTES?SEEKFREE_IMU660RA
FFA00BH   FFA055H   00004BH   BYTE   INSEG    CODE           ?PR?IPS?OLED
FFA056H   FFA097H   000042H   BYTE   INSEG    CODE           ?PR?UART1_ISR?ISR
FFA098H   FFA0AAH   000013H   BYTE   UNIT     CODE           ?C_C51STARTUP
FFA0ABH   FFA0D3H   000029H   BYTE   UNIT     CODE           ?C_C51STARTUP?2
FFA0D4H   FFA0D6H   000003H   BYTE   UNIT     CODE           ?C_C51STARTUP?3
FFA0D7H   FFA114H   00003EH   BYTE   INSEG    CODE           ?PR?IMU660RA_SIMSPI_W_REG_BYTES?SEEKFREE_IMU660RA
FFA115H   FFA150H   00003CH   BYTE   INSEG    CODE           ?PR?PID_SET?CONTROL
FFA151H   FFA185H   000035H   BYTE   INSEG    CODE           ?PR?DELAY_MS?ZF_DELAY
FFA186H   FFA1B8H   000033H   BYTE   INSEG    CODE           ?PR?DELAY_US?ZF_DELAY
FFA1B9H   FFA1EAH   000032H   BYTE   INSEG    CODE           ?PR?FORWARDFEED_TURN?MOTOR
FFA1EBH   FFA218H   00002EH   BYTE   INSEG    CODE           ?PR?FORWARDFEED_L?MOTOR
FFA219H   FFA246H   00002EH   BYTE   INSEG    CODE           ?PR?FORWARDFEED_R?MOTOR
FFA247H   FFA273H   00002DH   BYTE   INSEG    CODE           ?PR?I2C_GENERATEACK?IIC_IO
FFA274H   FFA29EH   00002BH   BYTE   INSEG    CODE           ?PR?MAIN?MAIN
FFA29FH   FFA2C8H   00002AH   BYTE   INSEG    CODE           ?PR?IPS114_WRITEDATA_16BIT?SEEKFREE_IPS114_SPI
FFA2C9H   FFA2EEH   000026H   BYTE   INSEG    CODE           ?PR?IMU660RA_READ_REGISTERS?SEEKFREE_IMU660RA
FFA2EFH   FFA313H   000025H   BYTE   INSEG    CODE           ?PR?MEMCPY?_?MEMCPY
FFA314H   FFA336H   000023H   BYTE   INSEG    CODE           ?PR?DELAY_INIT?ZF_DELAY
FFA337H   FFA358H   000022H   BYTE   INSEG    CODE           ?PR?IMU660RA_READ_REGISTER?SEEKFREE_IMU660RA
FFA359H   FFA37AH   000022H   BYTE   INSEG    CODE           ?PR?IMU660RA_WRITE_REGISTERS?SEEKFREE_IMU660RA
FFA37BH   FFA39CH   000022H   BYTE   INSEG    CODE           ?PR?I2C_GENERATESTART?IIC_IO
FFA39DH   FFA3BEH   000022H   BYTE   INSEG    CODE           ?PR?I2C_GENERATESTOP?IIC_IO
FFA3BFH   FFA3D8H   00001AH   BYTE   INSEG    CODE           ?PR?IMU660RA_WRITE_REGISTER?SEEKFREE_IMU660RA
FFA3D9H   FFA3F2H   00001AH   BYTE   INSEG    CODE           ?PR?WIRELESS_UART_CALLBACK?SEEKFREE_WIRELESS
FFA3F3H   FFA40CH   00001AH   BYTE   INSEG    CODE           ?PR?UART2_ISR?ISR
FFA40DH   FFA426H   00001AH   BYTE   INSEG    CODE           ?PR?UART3_ISR?ISR
FFA427H   FFA43BH   000015H   BYTE   INSEG    CODE           ?PR?IPS114_WRITEINDEX?SEEKFREE_IPS114_SPI
FFA43CH   FFA450H   000015H   BYTE   INSEG    CODE           ?PR?IPS114_WRITEDATA?SEEKFREE_IPS114_SPI
FFA451H   FFA464H   000014H   BYTE   INSEG    CODE           ?PR?CLOCK_INIT?BOARD
FFA465H   FFA478H   000014H   BYTE   INSEG    CODE           ?PR?POW2?ELEMENT
FFA479H   FFA48AH   000012H   BYTE   INSEG    CODE           ?PR?PUTCHAR?BOARD
FFA48BH   FFA49CH   000012H   BYTE   INSEG    CODE           ?PR?SPI_MOSI?ZF_SPI
FFA49DH   FFA4ADH   000011H   BYTE   INSEG    CODE           ?PR?ICACHEON?BOARD
FFA4AEH   FFA4B4H   000007H   BYTE   UNIT     CODE           ?PR?FCHS?STC32F_FPMU
FFA4B5H   FFA4BBH   000007H   BYTE   UNIT     CODE           ?PR?FABS?STC32F_FPMU
FFA4BCH   FFA4C2H   000007H   BYTE   INSEG    CODE           ?PR?USER_I2C_INIT?IIC_IO
FFA4C3H   FFA4C8H   000006H   BYTE   UNIT     CODE           ?PR?CASTF?STC32F_FPMU
FFA4C9H   FFA4CEH   000006H   BYTE   UNIT     CODE           ?PR?FCASTI?STC32F_FPMU
FFA4CFH   FFA4D2H   000004H   BYTE   INSEG    CODE           ?PR?INT3_ISR?ISR
FFA4D3H   FFA4D6H   000004H   BYTE   INSEG    CODE           ?PR?INT4_ISR?ISR
FFA4D7H   FFA4DAH   000004H   BYTE   INSEG    CODE           ?PR?TM2_ISR?ISR
FFA4DBH   FFA4DEH   000004H   BYTE   INSEG    CODE           ?PR?TM3_ISR?ISR
FFA4DFH   FFA4E2H   000004H   BYTE   INSEG    CODE           ?PR?TM4_ISR?ISR
FFA4E3H   FFA4E6H   000004H   BYTE   UNIT     CONST          ?CO?PRINTF
FFA4E7H   FFA964H   00047EH   BYTE   UNIT     HCONST         ?C_INITEDATA
FFA965H   FFAB90H   00022CH   BYTE   UNIT     HCONST         ?HC?OLED
FFAB91H   FFABE8H   000058H   BYTE   UNIT     HCONST         ?HC?ZF_PWM
FFABE9H   FFAC33H   00004BH   BYTE   UNIT     HCONST         ?HC?SEEKFREE_IMU963RA
L251 LINKER/LOCATER V4.66.93.0                                                        07/15/2024  23:31:17  PAGE 11


FFAC34H   FFAC68H   000035H   BYTE   UNIT     HCONST         ?HC?SEEKFREE_ICM20602
FFAC69H   FFAC9CH   000034H   BYTE   UNIT     HCONST         ?HC?SEEKFREE_IMU660RA
FFAC9DH   FFACB2H   000016H   BYTE   UNIT     HCONST         ?HC?SEEKFREE_MPU6050
FFACB3H   FFACC5H   000013H   BYTE   UNIT     HCONST         ?HC?SEEKFREE_DL1A
FFACC6H   FFACD5H   000010H   BYTE   UNIT     HCONST         ?HC?SEEKFREE_FUNCTION
FFACD6H   FFACE3H   00000EH   BYTE   UNIT     HCONST         ?HC?INIT
FFACE4H   FFACEDH   00000AH   BYTE   UNIT     HCONST         ?HC?SEEKFREE_OLED
FFACEEH   FFACF3H   000006H   BYTE   UNIT     HCONST         ?HC?SEEKFREE_18TFT
FFACF4H   FFACF9H   000006H   BYTE   UNIT     HCONST         ?HC?SEEKFREE_IPS114_SPI

* * * * * * * * *   R E M O V E D     S E G M E N T S   * * * * * * * *
   *DEL*:           000016H   BYTE   INSEG    CODE           ?PR?DISALBE_ICACHE?BOARD
   *DEL*:           000017H   BYTE   INSEG    CODE           ?PR?ENALBE_ICACHE?BOARD
   *DEL*:           000006H   BYTE   UNIT     CODE           ?PR?FXAM?STC32F_FPMU
   *DEL*:           000004H   BYTE   UNIT     CODE           ?PR?SIN?STC32F_FPMU
   *DEL*:           000004H   BYTE   UNIT     CODE           ?PR?COS?STC32F_FPMU
   *DEL*:           000004H   BYTE   UNIT     CODE           ?PR?TAN?STC32F_FPMU
   *DEL*:           00000AH   BYTE   UNIT     CODE           ?PR?ATAN?STC32F_FPMU
   *DEL*:           000006H   BYTE   UNIT     CODE           ?PR?FCASTC?STC32F_FPMU
   *DEL*:           000004H   BYTE   UNIT     CODE           ?PR?FCLEX?STC32F_FPMU
   *DEL*:           000004H   BYTE   UNIT     CODE           ?PR?FINIT?STC32F_FPMU
   *DEL*:           000006H   BYTE   UNIT     CODE           ?PR?FPSRR?STC32F_FPMU
   *DEL*:           000006H   BYTE   UNIT     CODE           ?PR?FPSRW?STC32F_FPMU
   *DEL*:           000006H   BYTE   UNIT     CODE           ?PR?FPCRR?STC32F_FPMU
   *DEL*:           000006H   BYTE   UNIT     CODE           ?PR?FPCRW?STC32F_FPMU
   *DEL*:           00001AH   BYTE   INSEG    CODE           ?PR?IAP_SET_TPS?ZF_EEPROM
   *DEL*:           000015H   BYTE   INSEG    CODE           ?PR?EEPROM_TRIG?ZF_EEPROM
   *DEL*:           000029H   BYTE   INSEG    CODE           ?PR?IAP_ERASE_PAGE?ZF_EEPROM
   *DEL*:           000004H   BYTE   INSEG    CODE           ?PR?IAP_IDLE?ZF_EEPROM
   *DEL*:           00005FH   BYTE   INSEG    CODE           ?PR?IAP_READ_BYTES?ZF_EEPROM
   *DEL*:           000008H   BYTE   INSEG    CODE           ?PR?IAP_INIT?ZF_EEPROM
   *DEL*:           00005BH   BYTE   INSEG    CODE           ?PR?IAP_WRITE_BYTES?ZF_EEPROM
   *DEL*:           000012H   BYTE   INSEG    CODE           ?PR?IAP_GET_CMD_STATE?ZF_EEPROM
   *DEL*:           000066H   BYTE   INSEG    CODE           ?PR?EXIT_INIT?ZF_EXTI
   *DEL*:           000095H   BYTE   INSEG    CODE           ?PR?GPIO_PULL_SET?ZF_GPIO
   *DEL*:           000028H   BYTE   INSEG    CODE           ?PR?SEND_DATA?ZF_IIC
   *DEL*:           000037H   BYTE   INSEG    CODE           ?PR?IIC_CHANGE_PIN?ZF_IIC
   *DEL*:           00001CH   BYTE   INSEG    CODE           ?PR?RECV_DATA?ZF_IIC
   *DEL*:           000015H   BYTE   INSEG    CODE           ?PR?START?ZF_IIC
   *DEL*:           000057H   BYTE   INSEG    CODE           ?PR?WAIT?ZF_IIC
   *DEL*:           000021H   BYTE   INSEG    CODE           ?PR?SEND_ACK?ZF_IIC
   *DEL*:           000015H   BYTE   INSEG    CODE           ?PR?RECV_ACK?ZF_IIC
   *DEL*:           000015H   BYTE   INSEG    CODE           ?PR?STOP?ZF_IIC
   *DEL*:           00001EH   BYTE   INSEG    CODE           ?PR?SEND_NAK?ZF_IIC
   *DEL*:           00007AH   BYTE   INSEG    CODE           ?PR?IIC_INIT?ZF_IIC
   *DEL*:           000099H   BYTE   INSEG    CODE           ?PR?IIC_READ_REG?ZF_IIC
   *DEL*:           0000D4H   BYTE   INSEG    CODE           ?PR?IIC_READ_REG_BYTES?ZF_IIC
   *DEL*:           00007CH   BYTE   INSEG    CODE           ?PR?IIC_WRITE_REG?ZF_IIC
   *DEL*:           000035H   BYTE   INSEG    CODE           ?PR?IIC_DELAY_US?ZF_IIC
   *DEL*:           0000B9H   BYTE   INSEG    CODE           ?PR?NVIC_SETPRIORITY?ZF_NVIC
   *DEL*:           0001ABH   BYTE   INSEG    CODE           ?PR?PWM_FREQ?ZF_PWM
   *DEL*:           000026H   BYTE   INSEG    CODE           ?PR?SPI_CHANGE_MODE?ZF_SPI
   *DEL*:           0000CCH   BYTE   INSEG    CODE           ?PR?SPI_CHANGE_PIN?ZF_SPI
   *DEL*:           000033H   BYTE   INSEG    CODE           ?PR?UART_PUTBUFF?ZF_UART
   *DEL*:           00002BH   BYTE   INSEG    CODE           ?PR?UART_PUTSTR?ZF_UART
   *DEL*:           0003ACH   BYTE   INSEG    CODE           ?PR?FIFO_READ_BUFFER?ZF_FIFO
   *DEL*:           00013BH   BYTE   INSEG    CODE           ?PR?FIFO_WRITE_ELEMENT?ZF_FIFO
   *DEL*:           000434H   BYTE   INSEG    CODE           ?PR?FIFO_READ_TAIL_BUFFER?ZF_FIFO
   *DEL*:           0000EAH   BYTE   INSEG    CODE           ?PR?FIFO_CLEAR?ZF_FIFO
   *DEL*:           000070H   BYTE   INSEG    CODE           ?PR?FIFO_END_OFFSET?ZF_FIFO
   *DEL*:           000025H   BYTE   INSEG    CODE           ?PR?FIFO_USED?ZF_FIFO
   *DEL*:           000083H   BYTE   INSEG    CODE           ?PR?FIFO_INIT?ZF_FIFO
   *DEL*:           00018BH   BYTE   INSEG    CODE           ?PR?FIFO_READ_ELEMENT?ZF_FIFO
   *DEL*:           0000CDH   BYTE   INSEG    CODE           ?PR?LCD_SHOWUINT16?SEEKFREE_18TFT
   *DEL*:           0000CEH   BYTE   INSEG    CODE           ?PR?LCD_SHOWINT32_SIMSPI?SEEKFREE_18TFT
L251 LINKER/LOCATER V4.66.93.0                                                        07/15/2024  23:31:17  PAGE 12


   *DEL*:           000119H   BYTE   INSEG    CODE           ?PR?LCD_SHOWINT16_SIMSPI?SEEKFREE_18TFT
   *DEL*:           0000CEH   BYTE   INSEG    CODE           ?PR?LCD_SHOWINT32?SEEKFREE_18TFT
   *DEL*:           000119H   BYTE   INSEG    CODE           ?PR?LCD_SHOWINT16?SEEKFREE_18TFT
   *DEL*:           000057H   BYTE   INSEG    CODE           ?PR?LCD_CLEAR_SIMSPI?SEEKFREE_18TFT
   *DEL*:           000057H   BYTE   INSEG    CODE           ?PR?LCD_CLEAR?SEEKFREE_18TFT
   *DEL*:           00005DH   BYTE   INSEG    CODE           ?PR?LCD_SHOWSTR_SIMSPI?SEEKFREE_18TFT
   *DEL*:           00005DH   BYTE   INSEG    CODE           ?PR?LCD_SHOWSTR?SEEKFREE_18TFT
   *DEL*:           00004CH   BYTE   INSEG    CODE           ?PR?LCD_WRITEINDEX_SIMSPI?SEEKFREE_18TFT
   *DEL*:           00004CH   BYTE   INSEG    CODE           ?PR?LCD_WRITEDATA_SIMSPI?SEEKFREE_18TFT
   *DEL*:           000015H   BYTE   INSEG    CODE           ?PR?LCD_WRITEINDEX?SEEKFREE_18TFT
   *DEL*:           000015H   BYTE   INSEG    CODE           ?PR?LCD_WRITEDATA?SEEKFREE_18TFT
   *DEL*:           000055H   BYTE   INSEG    CODE           ?PR?LCD_WRITEDATA_16BIT_SIMSPI?SEEKFREE_18TFT
   *DEL*:           000064H   BYTE   INSEG    CODE           ?PR?LCD_SET_REGION_SIMSPI?SEEKFREE_18TFT
   *DEL*:           0001FDH   BYTE   INSEG    CODE           ?PR?LCD_INIT_SIMSPI?SEEKFREE_18TFT
   *DEL*:           0000ECH   BYTE   INSEG    CODE           ?PR?SHOWIMAGE?SEEKFREE_18TFT
   *DEL*:           000064H   BYTE   INSEG    CODE           ?PR?LCD_SET_REGION?SEEKFREE_18TFT
   *DEL*:           0001F3H   BYTE   INSEG    CODE           ?PR?LCD_INIT?SEEKFREE_18TFT
   *DEL*:           0000A9H   BYTE   INSEG    CODE           ?PR?LCD_SHOWUINT8_SIMSPI?SEEKFREE_18TFT
   *DEL*:           0000A9H   BYTE   INSEG    CODE           ?PR?LCD_SHOWUINT8?SEEKFREE_18TFT
   *DEL*:           0000EBH   BYTE   INSEG    CODE           ?PR?LCD_SHOWINT8_SIMSPI?SEEKFREE_18TFT
   *DEL*:           0000EBH   BYTE   INSEG    CODE           ?PR?LCD_SHOWINT8?SEEKFREE_18TFT
   *DEL*:           00002AH   BYTE   INSEG    CODE           ?PR?LCD_WRITEDATA_16BIT?SEEKFREE_18TFT
   *DEL*:           000145H   BYTE   INSEG    CODE           ?PR?LCD_SHOWFLOAT_SIMSPI?SEEKFREE_18TFT
   *DEL*:           000023H   BYTE   INSEG    CODE           ?PR?LCD_DRAWPOINT_SIMSPI?SEEKFREE_18TFT
   *DEL*:           000145H   BYTE   INSEG    CODE           ?PR?LCD_SHOWFLOAT?SEEKFREE_18TFT
   *DEL*:           000023H   BYTE   INSEG    CODE           ?PR?LCD_DRAWPOINT?SEEKFREE_18TFT
   *DEL*:           0000BFH   BYTE   INSEG    CODE           ?PR?LCD_SHOWCHAR_SIMSPI?SEEKFREE_18TFT
   *DEL*:           0000BFH   BYTE   INSEG    CODE           ?PR?LCD_SHOWCHAR?SEEKFREE_18TFT
   *DEL*:           0000CDH   BYTE   INSEG    CODE           ?PR?LCD_SHOWUINT16_SIMSPI?SEEKFREE_18TFT
   *DEL*:           000013H   BYTE   INSEG    CODE           ?PR?ENCODER_SELF4_CHECK?SEEKFREE_ABSOLUTE_ENCODER
   *DEL*:           000013H   BYTE   INSEG    CODE           ?PR?ENCODER_SELF5_CHECK?SEEKFREE_ABSOLUTE_ENCODER
   *DEL*:           000042H   BYTE   INSEG    CODE           ?PR?ENCODER_SPI_R_REG_BYTE?SEEKFREE_ABSOLUTE_ENCODER
   *DEL*:           00000AH   BYTE   INSEG    CODE           ?PR?ENCODER_DELAY_US?SEEKFREE_ABSOLUTE_ENCODER
   *DEL*:           000053H   BYTE   INSEG    CODE           ?PR?ENCODER_SPI_W_REG_BYTE?SEEKFREE_ABSOLUTE_ENCODER
   *DEL*:           00002DH   BYTE   INSEG    CODE           ?PR?SIMSPI_R_REG_BYTE?SEEKFREE_ABSOLUTE_ENCODER
   *DEL*:           000029H   BYTE   INSEG    CODE           ?PR?SIMSPI_W_REG_BYTE?SEEKFREE_ABSOLUTE_ENCODER
   *DEL*:           000030H   BYTE   INSEG    CODE           ?PR?ENCODER_INIT_SPI?SEEKFREE_ABSOLUTE_ENCODER
   *DEL*:           00000CH   BYTE   INSEG    CODE           ?PR?SPI_WR_BYTE?SEEKFREE_ABSOLUTE_ENCODER
   *DEL*:           000032H   BYTE   INSEG    CODE           ?PR?SET_ZERO_POSITION_SIMSPI?SEEKFREE_ABSOLUTE_ENCODER
   *DEL*:           000035H   BYTE   INSEG    CODE           ?PR?ENCODER_ANGLE_SIMSPI?SEEKFREE_ABSOLUTE_ENCODER
   *DEL*:           00002DH   BYTE   INSEG    CODE           ?PR?SPI_R_REG_BYTE?SEEKFREE_ABSOLUTE_ENCODER
   *DEL*:           000029H   BYTE   INSEG    CODE           ?PR?SPI_W_REG_BYTE?SEEKFREE_ABSOLUTE_ENCODER
   *DEL*:           000042H   BYTE   INSEG    CODE           ?PR?ENCODER_SIMSPI_R_REG_BYTE?SEEKFREE_ABSOLUTE_ENCODER
   *DEL*:           000053H   BYTE   INSEG    CODE           ?PR?ENCODER_SIMSPI_W_REG_BYTE?SEEKFREE_ABSOLUTE_ENCODER
   *DEL*:           000010H   BYTE   INSEG    CODE           ?PR?ENCODER_INIT_SIMSPI?SEEKFREE_ABSOLUTE_ENCODER
   *DEL*:           000032H   BYTE   INSEG    CODE           ?PR?SET_ZERO_POSITION_SPI?SEEKFREE_ABSOLUTE_ENCODER
   *DEL*:           000053H   BYTE   INSEG    CODE           ?PR?SIMSPI_WR_BYTE?SEEKFREE_ABSOLUTE_ENCODER
   *DEL*:           000035H   BYTE   INSEG    CODE           ?PR?ENCODER_ANGLE_SPI?SEEKFREE_ABSOLUTE_ENCODER
   *DEL*:           00002EH   BYTE   INSEG    CODE           ?PR?BLUETOOTH_CH9141_READ_BUFF?SEEKFREE_BLUETOOTH_CH9141
   *DEL*:           0000D4H   BYTE   INSEG    CODE           ?PR?BLUETOOTH_CH9141_SEND_BUFF?SEEKFREE_BLUETOOTH_CH9141
   *DEL*:           000045H   BYTE   INSEG    CODE           ?PR?BLUETOOTH_CH9141_INIT?SEEKFREE_BLUETOOTH_CH9141
   *DEL*:           000028H   BYTE   INSEG    CODE           ?PR?DL1A_SIMIIC_SENDACK?SEEKFREE_DL1A
   *DEL*:           000051H   BYTE   INSEG    CODE           ?PR?DL1A_TIMEOUT_MICROSECONDS_TO_MCLKS?SEEKFREE_DL1A
   *DEL*:           000053H   BYTE   INSEG    CODE           ?PR?DL1A_TIMEOUT_MCLKS_TO_MICROSECONDS?SEEKFREE_DL1A
   *DEL*:           00003EH   BYTE   INSEG    CODE           ?PR?DL1A_SET_SIGNAL_RATE_LIMIT?SEEKFREE_DL1A
   *DEL*:           00006AH   BYTE   INSEG    CODE           ?PR?DL1A_READ_CH?SEEKFREE_DL1A
   *DEL*:           00002AH   BYTE   INSEG    CODE           ?PR?DL1A_DECODE_TIMEOUT?SEEKFREE_DL1A
   *DEL*:           000049H   BYTE   INSEG    CODE           ?PR?DL1A_SEND_CH?SEEKFREE_DL1A
   *DEL*:           000195H   BYTE   INSEG    CODE           ?PR?DL1A_GET_SPAD_INFO?SEEKFREE_DL1A
   *DEL*:           00007FH   BYTE   INSEG    CODE           ?PR?DL1A_ENCODE_TIMEOUT?SEEKFREE_DL1A
   *DEL*:           00008EH   BYTE   INSEG    CODE           ?PR?DL1A_GET_SEQUENCE_STEP_ENABLES?SEEKFREE_DL1A
   *DEL*:           000021H   BYTE   INSEG    CODE           ?PR?DL1A_SCCB_WAITACK?SEEKFREE_DL1A
   *DEL*:           00006CH   BYTE   INSEG    CODE           ?PR?DL1A_GET_DISTANCE?SEEKFREE_DL1A
   *DEL*:           00001FH   BYTE   INSEG    CODE           ?PR?DL1A_SIMIIC_DELAY?SEEKFREE_DL1A
   *DEL*:           0000ABH   BYTE   INSEG    CODE           ?PR?DL1A_PERFORM_SINGLE_REF_CALIBRATION?SEEKFREE_DL1A
L251 LINKER/LOCATER V4.66.93.0                                                        07/15/2024  23:31:17  PAGE 13


   *DEL*:           000169H   BYTE   INSEG    CODE           ?PR?DL1A_GET_SEQUENCE_STEP_TIMEOUTS?SEEKFREE_DL1A
   *DEL*:           000013H   BYTE   INSEG    CODE           ?PR?DL1A_SIMIIC_START?SEEKFREE_DL1A
   *DEL*:           000068H   BYTE   INSEG    CODE           ?PR?DL1A_SIMIIC_READ_REGS?SEEKFREE_DL1A
   *DEL*:           0000B6H   BYTE   INSEG    CODE           ?PR?DL1A_GET_MEASUREMENT_TIMING_BUDGET?SEEKFREE_DL1A
   *DEL*:           000042H   BYTE   INSEG    CODE           ?PR?DL1A_SIMIIC_WRITE_DATS?SEEKFREE_DL1A
   *DEL*:           00003BH   BYTE   INSEG    CODE           ?PR?DL1A_SIMIIC_READ_REG?SEEKFREE_DL1A
   *DEL*:           000068H   BYTE   INSEG    CODE           ?PR?DL1A_SIMIIC_READ_REGS_1?SEEKFREE_DL1A
   *DEL*:           000149H   BYTE   INSEG    CODE           ?PR?DL1A_SET_MEASUREMENT_TIMING_BUDGET?SEEKFREE_DL1A
   *DEL*:           000016H   BYTE   INSEG    CODE           ?PR?DL1A_SIMIIC_STOP?SEEKFREE_DL1A
   *DEL*:           00002AH   BYTE   INSEG    CODE           ?PR?DL1A_SIMIIC_WRITE_REG?SEEKFREE_DL1A
   *DEL*:           0006AEH   BYTE   INSEG    CODE           ?PR?DL1A_INIT?SEEKFREE_DL1A
   *DEL*:           00007AH   BYTE   INSEG    CODE           ?PR?DL1A_GET_VCSEL_PULSE_PERIOD?SEEKFREE_DL1A
   *DEL*:           000028H   BYTE   INSEG    CODE           ?PR?DL1B_SIMIIC_SENDACK?SEEKFREE_DL1B
   *DEL*:           00006AH   BYTE   INSEG    CODE           ?PR?DL1B_READ_CH?SEEKFREE_DL1B
   *DEL*:           000049H   BYTE   INSEG    CODE           ?PR?DL1B_SEND_CH?SEEKFREE_DL1B
   *DEL*:           000079H   BYTE   INSEG    CODE           ?PR?DL1B_IIC_TRANSFER_8BIT_ARRAY?SEEKFREE_DL1B
   *DEL*:           000021H   BYTE   INSEG    CODE           ?PR?DL1B_SCCB_WAITACK?SEEKFREE_DL1B
   *DEL*:           000133H   BYTE   INSEG    CODE           ?PR?DL1B_GET_DISTANCE?SEEKFREE_DL1B
   *DEL*:           00001DH   BYTE   INSEG    CODE           ?PR?DL1B_SIMIIC_DELAY?SEEKFREE_DL1B
   *DEL*:           000013H   BYTE   INSEG    CODE           ?PR?DL1B_SIMIIC_START?SEEKFREE_DL1B
   *DEL*:           000016H   BYTE   INSEG    CODE           ?PR?DL1B_SIMIIC_STOP?SEEKFREE_DL1B
   *DEL*:           000112H   BYTE   INSEG    CODE           ?PR?DL1B_INIT?SEEKFREE_DL1B
   *DEL*:           000287H   BYTE   INSEG    CODE           ?PR?FUNC_DOUBLE_TO_STR?SEEKFREE_FUNCTION
   *DEL*:           000178H   BYTE   INSEG    CODE           ?PR?FUNC_STR_TO_DOUBLE?SEEKFREE_FUNCTION
   *DEL*:           000117H   BYTE   INSEG    CODE           ?PR?NUMBER_CONVERSION_ASCII?SEEKFREE_FUNCTION
   *DEL*:           000287H   BYTE   INSEG    CODE           ?PR?FUNC_FLOAT_TO_STR?SEEKFREE_FUNCTION
   *DEL*:           000178H   BYTE   INSEG    CODE           ?PR?FUNC_STR_TO_FLOAT?SEEKFREE_FUNCTION
   *DEL*:           000019H   BYTE   INSEG    CODE           ?PR?FUNC_SOFT_DELAY?SEEKFREE_FUNCTION
   *DEL*:           000661H   BYTE   INSEG    CODE           ?PR?ZF_SPRINTF?SEEKFREE_FUNCTION
   *DEL*:           0000A9H   BYTE   INSEG    CODE           ?PR?FUNC_UINT_TO_STR?SEEKFREE_FUNCTION
   *DEL*:           00005FH   BYTE   INSEG    CODE           ?PR?FUNC_STR_TO_UINT?SEEKFREE_FUNCTION
   *DEL*:           0000E3H   BYTE   INSEG    CODE           ?PR?FUNC_HEX_TO_STR?SEEKFREE_FUNCTION
   *DEL*:           000137H   BYTE   INSEG    CODE           ?PR?FUNC_STR_TO_HEX?SEEKFREE_FUNCTION
   *DEL*:           0000FFH   BYTE   INSEG    CODE           ?PR?FUNC_INT_TO_STR?SEEKFREE_FUNCTION
   *DEL*:           0000B6H   BYTE   INSEG    CODE           ?PR?FUNC_STR_TO_INT?SEEKFREE_FUNCTION
   *DEL*:           00004FH   BYTE   INSEG    CODE           ?PR?FUNC_GET_GREATEST_COMMON_DIVISOR?SEEKFREE_FUNCTION
   *DEL*:           000095H   BYTE   INSEG    CODE           ?PR?PRINTF_REVERSE_ORDER?SEEKFREE_FUNCTION
   *DEL*:           00001EH   BYTE   INSEG    CODE           ?PR?ICM20602_READ_REGISTER?SEEKFREE_ICM20602
   *DEL*:           00008DH   BYTE   INSEG    CODE           ?PR?ICM20602_GYRO_TRANSITION?SEEKFREE_ICM20602
   *DEL*:           00001AH   BYTE   INSEG    CODE           ?PR?ICM20602_WRITE_REGISTER?SEEKFREE_ICM20602
   *DEL*:           000059H   BYTE   INSEG    CODE           ?PR?ICM20602_SIMSPI_WR_BYTE?SEEKFREE_ICM20602
   *DEL*:           00004EH   BYTE   INSEG    CODE           ?PR?ICM20602_SELF_CHECK?SEEKFREE_ICM20602
   *DEL*:           000051H   BYTE   INSEG    CODE           ?PR?ICM20602_SIMSPI_R_REG_BYTES?SEEKFREE_ICM20602
   *DEL*:           000027H   BYTE   INSEG    CODE           ?PR?ICM20602_SIMSPI_R_REG_BYTE?SEEKFREE_ICM20602
   *DEL*:           00001BH   BYTE   INSEG    CODE           ?PR?ICM20602_SIMSPI_W_REG_BYTE?SEEKFREE_ICM20602
   *DEL*:           0000C2H   BYTE   INSEG    CODE           ?PR?ICM20602_INIT?SEEKFREE_ICM20602
   *DEL*:           000050H   BYTE   INSEG    CODE           ?PR?ICM20602_GET_ACC?SEEKFREE_ICM20602
   *DEL*:           000089H   BYTE   INSEG    CODE           ?PR?ICM20602_ACC_TRANSITION?SEEKFREE_ICM20602
   *DEL*:           000026H   BYTE   INSEG    CODE           ?PR?ICM20602_READ_REGISTERS?SEEKFREE_ICM20602
   *DEL*:           000050H   BYTE   INSEG    CODE           ?PR?ICM20602_GET_GYRO?SEEKFREE_ICM20602
   *DEL*:           00007CH   BYTE   INSEG    CODE           ?PR?IMU660RA_ACC_TRANSITION?SEEKFREE_IMU660RA
   *DEL*:           00008DH   BYTE   INSEG    CODE           ?PR?IMU963RA_ACC_TRANSITION?SEEKFREE_IMU963RA
   *DEL*:           000050H   BYTE   INSEG    CODE           ?PR?IMU963RA_GET_GYRO?SEEKFREE_IMU963RA
   *DEL*:           000051H   BYTE   INSEG    CODE           ?PR?IMU963RA_MAG_TRANSITION?SEEKFREE_IMU963RA
   *DEL*:           0000D2H   BYTE   INSEG    CODE           ?PR?IMU963RA_GYRO_TRANSITION?SEEKFREE_IMU963RA
   *DEL*:           000059H   BYTE   INSEG    CODE           ?PR?IMU963RA_SIMSPI_WR_BYTE?SEEKFREE_IMU963RA
   *DEL*:           00006CH   BYTE   INSEG    CODE           ?PR?IMU963RA_READ_MAG_REGISTER?SEEKFREE_IMU963RA
   *DEL*:           00003AH   BYTE   INSEG    CODE           ?PR?IMU963RA_CONNECT_MAG?SEEKFREE_IMU963RA
   *DEL*:           000026H   BYTE   INSEG    CODE           ?PR?IMU963RA_READ_ACC_GYRO_REGISTERS?SEEKFREE_IMU963RA
   *DEL*:           00007FH   BYTE   INSEG    CODE           ?PR?IMU963RA_WRITE_MAG_REGISTER?SEEKFREE_IMU963RA
   *DEL*:           000023H   BYTE   INSEG    CODE           ?PR?IMU963RA_READ_ACC_GYRO_REGISTER?SEEKFREE_IMU963RA
   *DEL*:           00004BH   BYTE   INSEG    CODE           ?PR?IMU963RA_SIMSPI_R_REG_BYTES?SEEKFREE_IMU963RA
   *DEL*:           00002DH   BYTE   INSEG    CODE           ?PR?IMU963RA_SIMSPI_R_REG_BYTE?SEEKFREE_IMU963RA
   *DEL*:           000051H   BYTE   INSEG    CODE           ?PR?IMU963RA_MAG_SELF_CHECK?SEEKFREE_IMU963RA
   *DEL*:           00001AH   BYTE   INSEG    CODE           ?PR?IMU963RA_WRITE_ACC_GYRO_REGISTER?SEEKFREE_IMU963RA
L251 LINKER/LOCATER V4.66.93.0                                                        07/15/2024  23:31:17  PAGE 14


   *DEL*:           000021H   BYTE   INSEG    CODE           ?PR?IMU963RA_SIMSPI_W_REG_BYTE?SEEKFREE_IMU963RA
   *DEL*:           00011DH   BYTE   INSEG    CODE           ?PR?IMU963RA_INIT?SEEKFREE_IMU963RA
   *DEL*:           00004EH   BYTE   INSEG    CODE           ?PR?IMU963RA_ACC_GYRO_SELF_CHECK?SEEKFREE_IMU963RA
   *DEL*:           000050H   BYTE   INSEG    CODE           ?PR?IMU963RA_GET_ACC?SEEKFREE_IMU963RA
   *DEL*:           00006BH   BYTE   INSEG    CODE           ?PR?IMU963RA_GET_MAG?SEEKFREE_IMU963RA
   *DEL*:           0000A9H   BYTE   INSEG    CODE           ?PR?IPS114_SHOWUINT8_SIMSPI?SEEKFREE_IPS114_SPI
   *DEL*:           0000A5H   BYTE   INSEG    CODE           ?PR?IPS114_SHOWUINT8?SEEKFREE_IPS114_SPI
   *DEL*:           0000EBH   BYTE   INSEG    CODE           ?PR?IPS114_SHOWINT8_SIMSPI?SEEKFREE_IPS114_SPI
   *DEL*:           0000E7H   BYTE   INSEG    CODE           ?PR?IPS114_SHOWINT8?SEEKFREE_IPS114_SPI
   *DEL*:           000145H   BYTE   INSEG    CODE           ?PR?IPS114_SHOWFLOAT_SIMSPI?SEEKFREE_IPS114_SPI
   *DEL*:           000023H   BYTE   INSEG    CODE           ?PR?IPS114_DRAWPOINT_SIMSPI?SEEKFREE_IPS114_SPI
   *DEL*:           000145H   BYTE   INSEG    CODE           ?PR?IPS114_SHOWFLOAT?SEEKFREE_IPS114_SPI
   *DEL*:           000023H   BYTE   INSEG    CODE           ?PR?IPS114_DRAWPOINT?SEEKFREE_IPS114_SPI
   *DEL*:           0000BFH   BYTE   INSEG    CODE           ?PR?IPS114_SHOWCHAR_SIMSPI?SEEKFREE_IPS114_SPI
   *DEL*:           0000CDH   BYTE   INSEG    CODE           ?PR?IPS114_SHOWUINT16_SIMSPI?SEEKFREE_IPS114_SPI
   *DEL*:           0000CDH   BYTE   INSEG    CODE           ?PR?IPS114_SHOWUINT16?SEEKFREE_IPS114_SPI
   *DEL*:           0000CEH   BYTE   INSEG    CODE           ?PR?IPS114_SHOWINT32_SIMSPI?SEEKFREE_IPS114_SPI
   *DEL*:           000119H   BYTE   INSEG    CODE           ?PR?IPS114_SHOWINT16_SIMSPI?SEEKFREE_IPS114_SPI
   *DEL*:           0000CEH   BYTE   INSEG    CODE           ?PR?IPS114_SHOWINT32?SEEKFREE_IPS114_SPI
   *DEL*:           00005FH   BYTE   INSEG    CODE           ?PR?IPS114_CLEAR_SIMSPI?SEEKFREE_IPS114_SPI
   *DEL*:           000055H   BYTE   INSEG    CODE           ?PR?IPS114_WRITEDATAI_16BIT_SIMSPI?SEEKFREE_IPS114_SPI
   *DEL*:           00005DH   BYTE   INSEG    CODE           ?PR?IPS114_SHOWSTR_SIMSPI?SEEKFREE_IPS114_SPI
   *DEL*:           00004CH   BYTE   INSEG    CODE           ?PR?IPS114_WRITEINDEX_SIMSPI?SEEKFREE_IPS114_SPI
   *DEL*:           00004CH   BYTE   INSEG    CODE           ?PR?IPS114_WRITEDATA_SIMSPI?SEEKFREE_IPS114_SPI
   *DEL*:           000054H   BYTE   INSEG    CODE           ?PR?IPS114_SET_REGION_SIMSPI?SEEKFREE_IPS114_SPI
   *DEL*:           000154H   BYTE   INSEG    CODE           ?PR?IPS114_INIT_SIMSPI?SEEKFREE_IPS114_SPI
   *DEL*:           0000CCH   BYTE   INSEG    CODE           ?PR?IPS200_SHOW_FLOAT?SEEKFREE_IPS200_SPI
   *DEL*:           00002DH   BYTE   INSEG    CODE           ?PR?IPS200_DRAW_POINT?SEEKFREE_IPS200_SPI
   *DEL*:           000093H   BYTE   INSEG    CODE           ?PR?IPS200_SHOW_STRING?SEEKFREE_IPS200_SPI
   *DEL*:           0001F1H   BYTE   INSEG    CODE           ?PR?IPS200_SHOW_CHAR?SEEKFREE_IPS200_SPI
   *DEL*:           000015H   BYTE   INSEG    CODE           ?PR?IPS200_SET_COLOR?SEEKFREE_IPS200_SPI
   *DEL*:           000132H   BYTE   INSEG    CODE           ?PR?IPS200_SHOW_WAVE?SEEKFREE_IPS200_SPI
   *DEL*:           000021H   BYTE   INSEG    CODE           ?PR?IPS200_WRITE_16BIT_DATA_SPI?SEEKFREE_IPS200_SPI
   *DEL*:           0001C6H   BYTE   INSEG    CODE           ?PR?IPS200_INIT_SPI?SEEKFREE_IPS200_SPI
   *DEL*:           000095H   BYTE   INSEG    CODE           ?PR?IPS200_SHOW_UINT?SEEKFREE_IPS200_SPI
   *DEL*:           000009H   BYTE   INSEG    CODE           ?PR?IPS200_SET_FONT?SEEKFREE_IPS200_SPI
   *DEL*:           000037H   BYTE   INSEG    CODE           ?PR?IPS200_SET_DIR?SEEKFREE_IPS200_SPI
   *DEL*:           00009BH   BYTE   INSEG    CODE           ?PR?IPS200_SHOW_INT?SEEKFREE_IPS200_SPI
   *DEL*:           00001EH   BYTE   INSEG    CODE           ?PR?IPS200_WRITE_COMMAND?SEEKFREE_IPS200_SPI
   *DEL*:           000015H   BYTE   INSEG    CODE           ?PR?IPS200_WRITE_8BIT_DATA?SEEKFREE_IPS200_SPI
   *DEL*:           000163H   BYTE   INSEG    CODE           ?PR?IPS200_SHOW_CHINESE?SEEKFREE_IPS200_SPI
   *DEL*:           00006DH   BYTE   INSEG    CODE           ?PR?IPS200_CLEAR?SEEKFREE_IPS200_SPI
   *DEL*:           000008H   BYTE   INSEG    CODE           ?PR?IPS200_WRITE_8BIT_DATA_SPI?SEEKFREE_IPS200_SPI
   *DEL*:           000015H   BYTE   INSEG    CODE           ?PR?IPS200_WRITE_16BIT_DATA?SEEKFREE_IPS200_SPI
   *DEL*:           000071H   BYTE   INSEG    CODE           ?PR?IPS200_FULL?SEEKFREE_IPS200_SPI
   *DEL*:           00003CH   BYTE   INSEG    CODE           ?PR?IPS200_SET_REGION?SEEKFREE_IPS200_SPI
   *DEL*:           0001BEH   BYTE   INSEG    CODE           ?PR?IPS200_DRAW_LINE?SEEKFREE_IPS200_SPI
   *DEL*:           000013H   BYTE   INSEG    CODE           ?PR?MPU6050_SIMIIC_START?SEEKFREE_MPU6050
   *DEL*:           00006CH   BYTE   INSEG    CODE           ?PR?MPU6050_SIMIIC_READ_REGS?SEEKFREE_MPU6050
   *DEL*:           00003BH   BYTE   INSEG    CODE           ?PR?MPU6050_SIMIIC_READ_REG?SEEKFREE_MPU6050
   *DEL*:           000016H   BYTE   INSEG    CODE           ?PR?MPU6050_SIMIIC_STOP?SEEKFREE_MPU6050
   *DEL*:           00002AH   BYTE   INSEG    CODE           ?PR?MPU6050_SIMIIC_WRITE_REG?SEEKFREE_MPU6050
   *DEL*:           000060H   BYTE   INSEG    CODE           ?PR?MPU6050_INIT?SEEKFREE_MPU6050
   *DEL*:           000033H   BYTE   INSEG    CODE           ?PR?MPU6050_SELF1_CHECK?SEEKFREE_MPU6050
   *DEL*:           000028H   BYTE   INSEG    CODE           ?PR?MPU6050_SIMIIC_SENDACK?SEEKFREE_MPU6050
   *DEL*:           00006AH   BYTE   INSEG    CODE           ?PR?MPU6050_READ_CH?SEEKFREE_MPU6050
   *DEL*:           000049H   BYTE   INSEG    CODE           ?PR?MPU6050_SEND_CH?SEEKFREE_MPU6050
   *DEL*:           000052H   BYTE   INSEG    CODE           ?PR?MPU6050_GET_GYRO?SEEKFREE_MPU6050
   *DEL*:           000021H   BYTE   INSEG    CODE           ?PR?MPU6050_SCCB_WAITACK?SEEKFREE_MPU6050
   *DEL*:           000052H   BYTE   INSEG    CODE           ?PR?MPU6050_GET_ACCDATA?SEEKFREE_MPU6050
   *DEL*:           00001DH   BYTE   INSEG    CODE           ?PR?MPU6050_SIMIIC_DELAY?SEEKFREE_MPU6050
   *DEL*:           000047H   BYTE   INSEG    CODE           ?PR?OLED_PUTPIXEL?SEEKFREE_OLED
   *DEL*:           00006FH   BYTE   INSEG    CODE           ?PR?OLED_HEXASCII_SPI?SEEKFREE_OLED
   *DEL*:           000035H   BYTE   INSEG    CODE           ?PR?OLED_SET_POS?SEEKFREE_OLED
   *DEL*:           00044DH   BYTE   INSEG    CODE           ?PR?OLED_DIS_BMP_SPI?SEEKFREE_OLED
L251 LINKER/LOCATER V4.66.93.0                                                        07/15/2024  23:31:17  PAGE 15


   *DEL*:           000145H   BYTE   INSEG    CODE           ?PR?OLED_PRINTF_FLOAT?SEEKFREE_OLED
   *DEL*:           000121H   BYTE   INSEG    CODE           ?PR?OLED_P8X16STR_SPI?SEEKFREE_OLED
   *DEL*:           000041H   BYTE   INSEG    CODE           ?PR?OLED_CLRPIXEL_SPI?SEEKFREE_OLED
   *DEL*:           00004CH   BYTE   INSEG    CODE           ?PR?OLED_WRCMD?SEEKFREE_OLED
   *DEL*:           0000C0H   BYTE   INSEG    CODE           ?PR?OLED_PRINT_CHINESE_SPI?SEEKFREE_OLED
   *DEL*:           00004CH   BYTE   INSEG    CODE           ?PR?OLED_WRDAT?SEEKFREE_OLED
   *DEL*:           00005DH   BYTE   INSEG    CODE           ?PR?OLED_FILL?SEEKFREE_OLED
   *DEL*:           0000CEH   BYTE   INSEG    CODE           ?PR?OLED_PRINTF_INT32?SEEKFREE_OLED
   *DEL*:           000027H   BYTE   INSEG    CODE           ?PR?OLED_UINT16?SEEKFREE_OLED
   *DEL*:           000048H   BYTE   INSEG    CODE           ?PR?OLED_PUTPIXEL_SPI?SEEKFREE_OLED
   *DEL*:           000036H   BYTE   INSEG    CODE           ?PR?OLED_SET_POS_SPI?SEEKFREE_OLED
   *DEL*:           0000D1H   BYTE   INSEG    CODE           ?PR?OLED_P6X8STR?SEEKFREE_OLED
   *DEL*:           000073H   BYTE   INSEG    CODE           ?PR?OLED_INT16?SEEKFREE_OLED
   *DEL*:           0000A8H   BYTE   INSEG    CODE           ?PR?OLED_INIT?SEEKFREE_OLED
   *DEL*:           000145H   BYTE   INSEG    CODE           ?PR?OLED_PRINTF_FLOAT_SPI?SEEKFREE_OLED
   *DEL*:           000015H   BYTE   INSEG    CODE           ?PR?OLED_WRCMD_SPI?SEEKFREE_OLED
   *DEL*:           000015H   BYTE   INSEG    CODE           ?PR?OLED_WRDAT_SPI?SEEKFREE_OLED
   *DEL*:           00006FH   BYTE   INSEG    CODE           ?PR?OLED_HEXASCII?SEEKFREE_OLED
   *DEL*:           00005DH   BYTE   INSEG    CODE           ?PR?OLED_FILL_SPI?SEEKFREE_OLED
   *DEL*:           0000CEH   BYTE   INSEG    CODE           ?PR?OLED_PRINTF_INT32_SPI?SEEKFREE_OLED
   *DEL*:           000027H   BYTE   INSEG    CODE           ?PR?OLED_UINT16_SPI?SEEKFREE_OLED
   *DEL*:           0000D1H   BYTE   INSEG    CODE           ?PR?OLED_P6X8STR_SPI?SEEKFREE_OLED
   *DEL*:           000073H   BYTE   INSEG    CODE           ?PR?OLED_INT16_SPI?SEEKFREE_OLED
   *DEL*:           00046AH   BYTE   INSEG    CODE           ?PR?OLED_DIS_BMP?SEEKFREE_OLED
   *DEL*:           0000C5H   BYTE   INSEG    CODE           ?PR?OLED_INIT_SPI?SEEKFREE_OLED
   *DEL*:           000121H   BYTE   INSEG    CODE           ?PR?OLED_P8X16STR?SEEKFREE_OLED
   *DEL*:           000040H   BYTE   INSEG    CODE           ?PR?OLED_CLRPIXEL?SEEKFREE_OLED
   *DEL*:           0000C0H   BYTE   INSEG    CODE           ?PR?OLED_PRINT_CHINESE?SEEKFREE_OLED
   *DEL*:           00008AH   BYTE   INSEG    CODE           ?PR?CCD_SEND_DATA?SEEKFREE_TSL1401
   *DEL*:           000022H   BYTE   INSEG    CODE           ?PR?CCD_INIT?SEEKFREE_TSL1401
   *DEL*:           00007CH   BYTE   INSEG    CODE           ?PR?CCD_COLLECT?SEEKFREE_TSL1401
   *DEL*:           00009AH   BYTE   INSEG    CODE           ?PR?CRC_CHECK?SEEKFREE_VIRSCO
   *DEL*:           0000DCH   BYTE   INSEG    CODE           ?PR?DATA_CONVERSION?SEEKFREE_VIRSCO
   *DEL*:           00002EH   BYTE   INSEG    CODE           ?PR?WIRELESS_UART_READ_BUFF?SEEKFREE_WIRELESS
   *DEL*:           000075H   BYTE   INSEG    CODE           ?PR?WIRELESS_UART_SEND_BUFF?SEEKFREE_WIRELESS
   *DEL*:           000044H   BYTE   INSEG    CODE           ?PR?WIRELESS_UART_INIT?SEEKFREE_WIRELESS
   *DEL*:           000021H   BYTE   INSEG    CODE           ?PR?WIRELESS_UART_SEND_BYTE?SEEKFREE_WIRELESS
   *DEL*:           000001H   BYTE   INSEG    CODE           ?PR?MULTISTAGE_PID_TURN?MOTOR
   *DEL*:           0000F4H   BYTE   INSEG    CODE           ?PR?PSTPID?CONTROL
   *DEL*:           0000A1H   BYTE   INSEG    CODE           ?PR?I2C_SENDBYTES?IIC_IO
   *DEL*:           000050H   BYTE   INSEG    CODE           ?PR?LUNAREADTEMP?TF_LUNA
   *DEL*:           000050H   BYTE   INSEG    CODE           ?PR?LUNAREADAMP?TF_LUNA
   *DEL*:           000138H   BYTE   INSEG    CODE           ?PR?SEEKFREE_ASSISTANT_OSCILLOSCOPE_SEND?SEEKFREE_ASSISTAN
                                                             -T
   *DEL*:           00001AH   BYTE   INSEG    CODE           ?PR?SEEKFREE_ASSISTANT_INIT?SEEKFREE_ASSISTANT
   *DEL*:           00003FH   BYTE   INSEG    CODE           ?PR?SEEKFREE_ASSISTANT_SUM?SEEKFREE_ASSISTANT
   *DEL*:           000175H   BYTE   INSEG    CODE           ?PR?SEEKFREE_ASSISTANT_DATA_ANALYSIS?SEEKFREE_ASSISTANT
   *DEL*:           00000EH   BYTE   INSEG    CODE           ?PR?STRLEN?_?STRLEN
   *DEL*:           00001AH   BYTE   INSEG    CODE           ?PR?MEMSET?_?MEMSET



OVERLAY MAP OF MODULE:   .\Out_File\SEEKFREE (board)


FUNCTION/MODULE                               EDATA_GROUP
--> CALLED FUNCTION/MODULE                    START  STOP
=========================================================
UART1_Isr/isr                                 ----- -----

*** NEW ROOT ********************************

UART2_Isr/isr                                 ----- -----

*** NEW ROOT ********************************
L251 LINKER/LOCATER V4.66.93.0                                                        07/15/2024  23:31:17  PAGE 16



UART3_Isr/isr                                 ----- -----

*** NEW ROOT ********************************

UART4_Isr/isr                                 ----- -----
  +--> wireless_uart_callback/SEEKFREE_WIRELESS
  +--> bluetooth_ch9141_uart_callback/SEEKFREE_BLUETOOTH_CH9141

wireless_uart_callback/SEEKFREE_WIRELESS      ----- -----
  +--> fifo_write_buffer/zf_fifo

fifo_write_buffer/zf_fifo                     ----- -----
  +--> memcpy?_/memcpy
  +--> fifo_head_offset/zf_fifo

memcpy?_/memcpy                               ----- -----

fifo_head_offset/zf_fifo                      ----- -----

bluetooth_ch9141_uart_callback/SEEKFREE_+     ----- -----
... BLUETOOTH_CH9141
  +--> fifo_write_buffer/zf_fifo

*** NEW ROOT ********************************

INT0_Isr/isr                                  ----- -----

*** NEW ROOT ********************************

INT1_Isr/isr                                  ----- -----

*** NEW ROOT ********************************

INT2_Isr/isr                                  ----- -----

*** NEW ROOT ********************************

INT3_Isr/isr                                  ----- -----

*** NEW ROOT ********************************

INT4_Isr/isr                                  ----- -----

*** NEW ROOT ********************************

TM0_Isr/isr                                   ----- -----

*** NEW ROOT ********************************

TM1_Isr/isr                                   ----- -----
  +--> gyroOffsetInit/init
  +--> LunaReadDist/tf_luna
  +--> SQRT/STC32F_FPMU
  +--> FPSUB/STC32F_FPMU
  +--> FPMUL/STC32F_FPMU
  +--> FPADD/STC32F_FPMU
  +--> FPDIV/STC32F_FPMU
  +--> get_adc/init
  +--> judge/element
  +--> motor/motor
  +--> FPCMP/STC32F_FPMU

gyroOffsetInit/init                           ----- -----
  +--> imu660ra_get_acc/SEEKFREE_IMU660RA
L251 LINKER/LOCATER V4.66.93.0                                                        07/15/2024  23:31:17  PAGE 17


  +--> imu660ra_get_gyro/SEEKFREE_IMU660RA
  +--> FCASTI/STC32F_FPMU
  +--> FPADD/STC32F_FPMU
  +--> delay_ms/zf_delay
  +--> FPMUL/STC32F_FPMU
  +--> FPSUB/STC32F_FPMU
  +--> CASTF/STC32F_FPMU
  +--> imu660ra_gyro_transition/SEEKFREE_IMU660RA

imu660ra_get_acc/SEEKFREE_IMU660RA            ----- -----
  +--> imu660ra_read_registers/SEEKFREE_IMU660RA

imu660ra_read_registers/SEEKFREE_IMU660R+     ----- -----
... A
  +--> imu660ra_simspi_r_reg_bytes/SEEKFREE_IMU660RA

imu660ra_simspi_r_reg_bytes/SEEKFREE_IMU+     ----- -----
... 660RA
  +--> imu660ra_simspi_wr_byte/SEEKFREE_IMU660RA

imu660ra_simspi_wr_byte/SEEKFREE_IMU660R+     ----- -----
... A

imu660ra_get_gyro/SEEKFREE_IMU660RA           ----- -----
  +--> imu660ra_read_registers/SEEKFREE_IMU660RA

FCASTI/STC32F_FPMU                            ----- -----

FPADD/STC32F_FPMU                             ----- -----

delay_ms/zf_delay                             ----- -----

FPMUL/STC32F_FPMU                             ----- -----

FPSUB/STC32F_FPMU                             ----- -----

CASTF/STC32F_FPMU                             ----- -----

imu660ra_gyro_transition/SEEKFREE_IMU660+     ----- -----
... RA
  +--> FCASTI/STC32F_FPMU
  +--> FPDIV/STC32F_FPMU

FPDIV/STC32F_FPMU                             ----- -----

LunaReadDist/tf_luna                          ----- -----
  +--> I2C_RecvBytes/iic_io

I2C_RecvBytes/iic_io                          ----- -----
  +--> I2C_DummyWrite/iic_io
  +--> I2C_GenerateStop/iic_io
  +--> I2C_GenerateStart/iic_io
  +--> I2C_SendByte/iic_io
  +--> I2C_RecvByte/iic_io
  +--> I2C_GenerateAck/iic_io

I2C_DummyWrite/iic_io                         ----- -----
  +--> I2C_GenerateStart/iic_io
  +--> I2C_SendByte/iic_io
  +--> I2C_GenerateStop/iic_io

I2C_GenerateStart/iic_io                      ----- -----
  +--> delay_us/zf_delay

delay_us/zf_delay                             ----- -----
L251 LINKER/LOCATER V4.66.93.0                                                        07/15/2024  23:31:17  PAGE 18



I2C_SendByte/iic_io                           ----- -----
  +--> delay_us/zf_delay
  +--> I2C_RecvAck/iic_io

I2C_RecvAck/iic_io                            ----- -----
  +--> delay_us/zf_delay

I2C_GenerateStop/iic_io                       ----- -----
  +--> delay_us/zf_delay

I2C_RecvByte/iic_io                           ----- -----
  +--> delay_us/zf_delay

I2C_GenerateAck/iic_io                        ----- -----
  +--> delay_us/zf_delay

SQRT/STC32F_FPMU                              ----- -----

get_adc/init                                  ----- -----
  +--> adc_once/zf_adc
  +--> FCASTI/STC32F_FPMU
  +--> FPDIV/STC32F_FPMU

adc_once/zf_adc                               ----- -----

judge/element                                 ----- -----
  +--> YUANHUAN/element
  +--> FPCMP/STC32F_FPMU
  +--> FABS/STC32F_FPMU
  +--> FPSUB/STC32F_FPMU
  +--> FPMUL/STC32F_FPMU
  +--> FPADD/STC32F_FPMU
  +--> FCASTI/STC32F_FPMU
  +--> CASTF/STC32F_FPMU

YUANHUAN/element                              ----- -----
  +--> FPSUB/STC32F_FPMU
  +--> pow2/element
  +--> FPADD/STC32F_FPMU
  +--> FPMUL/STC32F_FPMU
  +--> FCASTI/STC32F_FPMU
  +--> FPCMP/STC32F_FPMU

pow2/element                                  ----- -----
  +--> FPMUL/STC32F_FPMU

FPCMP/STC32F_FPMU                             ----- -----

FABS/STC32F_FPMU                              ----- -----

motor/motor                                   ----- -----
  +--> ctimer_count_read/zf_tim
  +--> ctimer_count_clean/zf_tim
  +--> FCASTI/STC32F_FPMU
  +--> FPDIV/STC32F_FPMU
  +--> FPMUL/STC32F_FPMU
  +--> FABS/STC32F_FPMU
  +--> FPADD/STC32F_FPMU
  +--> turn_PstPID/control
  +--> forwardfeed_turn/motor
  +--> FPCMP/STC32F_FPMU
  +--> FPSUB/STC32F_FPMU
  +--> multistage_pid/motor
  +--> IncPID/control
L251 LINKER/LOCATER V4.66.93.0                                                        07/15/2024  23:31:17  PAGE 19


  +--> forwardfeed_R/motor
  +--> forwardfeed_L/motor
  +--> pwm_duty/zf_pwm
  +--> gpio_mode/zf_gpio
  +--> CASTF/STC32F_FPMU
  +--> FCHS/STC32F_FPMU

ctimer_count_read/zf_tim                      ----- -----

ctimer_count_clean/zf_tim                     ----- -----

turn_PstPID/control                           ----- -----
  +--> FABS/STC32F_FPMU
  +--> FPMUL/STC32F_FPMU
  +--> FPSUB/STC32F_FPMU
  +--> FPADD/STC32F_FPMU

forwardfeed_turn/motor                        ----- -----
  +--> FPSUB/STC32F_FPMU
  +--> FPMUL/STC32F_FPMU
  +--> FPADD/STC32F_FPMU

multistage_pid/motor                          ----- -----
  +--> FPCMP/STC32F_FPMU
  +--> PID_Set/control

PID_Set/control                               ----- -----

IncPID/control                                ----- -----
  +--> FPSUB/STC32F_FPMU
  +--> FPMUL/STC32F_FPMU
  +--> FPADD/STC32F_FPMU

forwardfeed_R/motor                           ----- -----
  +--> FPSUB/STC32F_FPMU
  +--> FPMUL/STC32F_FPMU
  +--> FPADD/STC32F_FPMU

forwardfeed_L/motor                           ----- -----
  +--> FPSUB/STC32F_FPMU
  +--> FPMUL/STC32F_FPMU
  +--> FPADD/STC32F_FPMU

pwm_duty/zf_pwm                               ----- -----
  +--> FCASTL/STC32F_FPMU
  +--> FPDIV/STC32F_FPMU
  +--> FPMUL/STC32F_FPMU
  +--> CASTF/STC32F_FPMU

FCASTL/STC32F_FPMU                            ----- -----

gpio_mode/zf_gpio                             ----- -----

FCHS/STC32F_FPMU                              ----- -----

*** NEW ROOT ********************************

TM2_Isr/isr                                   ----- -----

*** NEW ROOT ********************************

TM3_Isr/isr                                   ----- -----

*** NEW ROOT ********************************

L251 LINKER/LOCATER V4.66.93.0                                                        07/15/2024  23:31:17  PAGE 20


TM4_Isr/isr                                   ----- -----

*** NEW ROOT ********************************

?C_C51STARTUP                                 ----- -----

*** NEW ROOT ********************************

?C_C51STARTUP?3                               ----- -----
  +--> main/main

main/main                                     ----- -----
  +--> DisableGlobalIRQ/board
  +--> clock_init/board
  +--> board_init/board
  +--> car_pre_init/init
  +--> pit_timer_ms/zf_tim
  +--> EnableGlobalIRQ/board
  +--> key/key
  +--> IPS/oled

DisableGlobalIRQ/board                        ----- -----

clock_init/board                              ----- -----
  +--> set_clk/board

set_clk/board                                 ----- -----

board_init/board                              ----- -----
  +--> delay_init/zf_delay
  +--> ICacheOn/board
  +--> uart_init/zf_uart
  +--> EnableGlobalIRQ/board

delay_init/zf_delay                           ----- -----
  +--> ?C?SLDIV/?C?SLDIV

?C?SLDIV/?C?SLDIV                             ----- -----
  +--> ?C?ULIDIV/?C?ULDIV

?C?ULIDIV/?C?ULDIV                            ----- -----

ICacheOn/board                                ----- -----

uart_init/zf_uart                             ----- -----
  +--> ?C?ULIDIV/?C?ULDIV

EnableGlobalIRQ/board                         ----- -----

car_pre_init/init                             ----- -----
  +--> PID_init/control
  +--> PID_Set/control
  +--> PID_turnSet/control
  +--> adc_init/zf_adc
  +--> delay_ms/zf_delay
  +--> pwm_init/zf_pwm
  +--> ips114_init/SEEKFREE_IPS114_SPI
  +--> ctimer_count_init/zf_tim
  +--> User_I2C_Init/iic_io
  +--> imu660ra_init/SEEKFREE_IMU660RA

PID_init/control                              ----- -----

PID_turnSet/control                           ----- -----

L251 LINKER/LOCATER V4.66.93.0                                                        07/15/2024  23:31:17  PAGE 21


adc_init/zf_adc                               ----- -----

pwm_init/zf_pwm                               ----- -----
  +--> pwm_set_gpio/zf_pwm
  +--> ?C?ULIDIV/?C?ULDIV
  +--> FCASTL/STC32F_FPMU
  +--> FPDIV/STC32F_FPMU
  +--> FPMUL/STC32F_FPMU
  +--> CASTF/STC32F_FPMU

pwm_set_gpio/zf_pwm                           ----- -----
  +--> gpio_mode/zf_gpio

ips114_init/SEEKFREE_IPS114_SPI               ----- -----
  +--> spi_init/zf_spi
  +--> delay_ms/zf_delay
  +--> ips114_writeIndex/SEEKFREE_IPS114_SPI
  +--> ips114_writeData/SEEKFREE_IPS114_SPI
  +--> ips114_clear/SEEKFREE_IPS114_SPI

spi_init/zf_spi                               ----- -----
  +--> gpio_mode/zf_gpio

ips114_writeIndex/SEEKFREE_IPS114_SPI         ----- -----
  +--> spi_mosi/zf_spi

spi_mosi/zf_spi                               ----- -----

ips114_writeData/SEEKFREE_IPS114_SPI          ----- -----
  +--> spi_mosi/zf_spi

ips114_clear/SEEKFREE_IPS114_SPI              ----- -----
  +--> ips114_set_region/SEEKFREE_IPS114_SPI
  +--> ips114_writedata_16bit/SEEKFREE_IPS114_SPI

ips114_set_region/SEEKFREE_IPS114_SPI         ----- -----
  +--> ips114_writeIndex/SEEKFREE_IPS114_SPI
  +--> ips114_writedata_16bit/SEEKFREE_IPS114_SPI

ips114_writedata_16bit/SEEKFREE_IPS114_S+     ----- -----
... PI
  +--> spi_mosi/zf_spi

ctimer_count_init/zf_tim                      ----- -----

User_I2C_Init/iic_io                          ----- -----

imu660ra_init/SEEKFREE_IMU660RA               ----- -----
  +--> delay_ms/zf_delay
  +--> imu660ra_self_check/SEEKFREE_IMU660RA
  +--> PRINTF/PRINTF
  +--> imu660ra_write_register/SEEKFREE_IMU660RA
  +--> imu660ra_write_registers/SEEKFREE_IMU660RA
  +--> imu660ra_read_register/SEEKFREE_IMU660RA

imu660ra_self_check/SEEKFREE_IMU660RA         ----- -----
  +--> imu660ra_read_register/SEEKFREE_IMU660RA
  +--> delay_ms/zf_delay

imu660ra_read_register/SEEKFREE_IMU660RA      ----- -----
  +--> imu660ra_simspi_r_reg_bytes/SEEKFREE_IMU660RA

PRINTF/PRINTF                                 0B33H 0B5AH
  +--> OUT/PRINTF

L251 LINKER/LOCATER V4.66.93.0                                                        07/15/2024  23:31:17  PAGE 22


OUT/PRINTF                                    ----- -----
  +--> PUTCH/PRINTF

PUTCH/PRINTF                                  ----- -----
  +--> putchar/board
  +--> OUT/PRINTF

putchar/board                                 ----- -----
  +--> uart_putchar/zf_uart

uart_putchar/zf_uart                          ----- -----

imu660ra_write_register/SEEKFREE_IMU660R+     ----- -----
... A
  +--> imu660ra_simspi_w_reg_byte/SEEKFREE_IMU660RA

imu660ra_simspi_w_reg_byte/SEEKFREE_IMU6+     ----- -----
... 60RA
  +--> imu660ra_simspi_wr_byte/SEEKFREE_IMU660RA

imu660ra_write_registers/SEEKFREE_IMU660+     ----- -----
... RA
  +--> imu660ra_simspi_w_reg_bytes/SEEKFREE_IMU660RA

imu660ra_simspi_w_reg_bytes/SEEKFREE_IMU+     ----- -----
... 660RA
  +--> imu660ra_simspi_wr_byte/SEEKFREE_IMU660RA

pit_timer_ms/zf_tim                           ----- -----
  +--> ?C?SLDIV/?C?SLDIV

key/key                                       ----- -----
  +--> delay_ms/zf_delay
  +--> pwm_duty/zf_pwm
  +--> FPADD/STC32F_FPMU

IPS/oled                                      ----- -----
  +--> IPS_page_show/oled
  +--> ips114_clear/SEEKFREE_IPS114_SPI

IPS_page_show/oled                            ----- -----
  +--> ips114_showint16/SEEKFREE_IPS114_SPI
  +--> SPRINTF/SPRINTF
  +--> ips114_showstr/SEEKFREE_IPS114_SPI
  +--> FPMUL/STC32F_FPMU
  +--> FPSUB/STC32F_FPMU

ips114_showint16/SEEKFREE_IPS114_SPI          ----- -----
  +--> ips114_showchar/SEEKFREE_IPS114_SPI

ips114_showchar/SEEKFREE_IPS114_SPI           ----- -----
  +--> ips114_set_region/SEEKFREE_IPS114_SPI
  +--> ips114_writedata_16bit/SEEKFREE_IPS114_SPI

SPRINTF/SPRINTF                               0B33H 0B5AH
  +--> OUT/SPRINTF

OUT/SPRINTF                                   ----- -----
  +--> PUTCH/SPRINTF

PUTCH/SPRINTF                                 ----- -----

ips114_showstr/SEEKFREE_IPS114_SPI            ----- -----
  +--> ips114_showchar/SEEKFREE_IPS114_SPI

L251 LINKER/LOCATER V4.66.93.0                                                        07/15/2024  23:31:17  PAGE 23


*** NEW ROOT ********************************

?C_C51STARTUP?2                               ----- -----



PUBLIC SYMBOLS OF MODULE:  .\Out_File\SEEKFREE (board)


      VALUE       CLASS    TYPE      PUBLIC SYMBOL NAME
      =================================================
      00FF68D5H   CODE     ---       ?C?BMOVENP
      00FF68D3H   CODE     ---       ?C?BMOVENP8
      00FFA4C3H   CODE     ---       ?C?CASTF
      000000FFH   NUMBER   ---       ?C?CODESEG
*DEL*:00000000H   CODE     ---       ?C?FCASTC
      00FFA4C9H   CODE     ---       ?C?FCASTI
      00FF008EH   CODE     ---       ?C?FCASTL
      00FF0016H   CODE     ---       ?C?FPADD
      00FF0046H   CODE     ---       ?C?FPCMP3
      00FF669EH   CODE     ---       ?C?FPCONVERT
      00FF005EH   CODE     ---       ?C?FPDIV
      00FF0056H   CODE     ---       ?C?FPMUL
      00FFA4AEH   CODE     ---       ?C?FPNEG
      00FF6756H   CODE     ---       ?C?FPROUND
      00FF001EH   CODE     ---       ?C?FPSUB
      00FF67C9H   CODE     ---       ?C?FTNPWR
      00FFA0ABH   CODE     ---       ?C?INITEDATA
      00FFA963H   HCONST   WORD      ?C?INITEDATA_END
      00FF6843H   CODE     ---       ?C?LIMUL
      00FF6832H   CODE     ---       ?C?LMUL
      00FF6281H   CODE     ---       ?C?PRNFMT
      00FF6800H   CODE     ---       ?C?SIDIV
      00FF689FH   CODE     NEAR LAB  ?C?SLDIV
      00FF0000H   CODE     ---       ?C?STARTUP
      00FF684EH   CODE     NEAR LAB  ?C?ULDIV
      00FF684CH   CODE     NEAR LAB  ?C?ULIDIV
      00000001H   NUMBER   ---       ?C?XDATASEG
      00FF0000H   CODE     ---       ?C_STARTUP
      00000E36H   EDATA    BYTE      ?data_conversion?BYTE
      00000DA2H   EDATA    BYTE      ?dl1b_iic_transfer_8bit_array?BYTE
      00000D92H   EDATA    BYTE      ?fifo_init?BYTE
      00000C6BH   EDATA    BYTE      ?fifo_read_buffer?BYTE
      00000E6BH   EDATA    BYTE      ?fifo_read_element?BYTE
      00000C83H   EDATA    BYTE      ?fifo_read_tail_buffer?BYTE
      00000D16H   EDATA    BYTE      ?fifo_write_buffer?BYTE
      00000F4FH   EDATA    BYTE      ?I2C_RecvBytes?BYTE
      00000E5EH   EDATA    BYTE      ?I2C_SendBytes?BYTE
      00000F87H   EDATA    BYTE      ?iap_read_bytes?BYTE
      00000F91H   EDATA    BYTE      ?iap_write_bytes?BYTE
      0000121FH   EDATA    BYTE      ?iic_init?BYTE
      00000DC2H   EDATA    BYTE      ?IncPID?BYTE
      000008EFH   EDATA    BYTE      ?ips114_showfloat?BYTE
      000008BFH   EDATA    BYTE      ?ips114_showfloat_simspi?BYTE
      00000C9BH   EDATA    BYTE      ?ips200_draw_line?BYTE
      00000C52H   EDATA    BYTE      ?ips200_show_chinese?BYTE
      00000B80H   EDATA    BYTE      ?ips200_show_float?BYTE
      00000BA3H   EDATA    BYTE      ?ips200_show_wave?BYTE
      0000088FH   EDATA    BYTE      ?lcd_showfloat?BYTE
      0000085FH   EDATA    BYTE      ?lcd_showfloat_simspi?BYTE
      0000091FH   EDATA    BYTE      ?oled_printf_float?BYTE
      0000094FH   EDATA    BYTE      ?oled_printf_float_spi?BYTE
      00000DB2H   EDATA    BYTE      ?PID_Set?BYTE
      00000D02H   EDATA    BYTE      ?PID_turnSet?BYTE
      00000B5BH   EDATA    ---       ?printf?BYTE
L251 LINKER/LOCATER V4.66.93.0                                                        07/15/2024  23:31:17  PAGE 24


      00000DD2H   EDATA    BYTE      ?PstPID?BYTE
      00000CDAH   EDATA    BYTE      ?pwm_freq?BYTE
      00000CC6H   EDATA    BYTE      ?pwm_init?BYTE
      000011D9H   EDATA    BYTE      ?spi_init?BYTE
      00000B5BH   EDATA    ---       ?sprintf?BYTE
      00000DF0H   EDATA    BYTE      ?uart_init?BYTE
      00000F9BH   EDATA    BYTE      ?uart_putbuff?BYTE
      000006B4H   EDATA    BYTE      ?zf_sprintf?BYTE
      00000562H   EDATA    CHAR      a
      000007E6H   EDATA    INT       abc
*SFR* 000000E0H   DATA     BYTE      ACC
      000004D2H   EDATA    FLOAT     acc_x
      000004D6H   EDATA    FLOAT     acc_y
      000004DAH   EDATA    FLOAT     acc_z
      0000050EH   EDATA    ---       adc
      00000389H   EDATA    ---       adc_cons
*SFR* 000000BCH   DATA     BYTE      ADC_CONTR
      00FF9529H   CODE     ---       adc_init
      00FF9CEFH   CODE     ---       adc_once
*SFR* 000000BDH   DATA     BYTE      ADC_RES
*SFR* 000000BEH   DATA     BYTE      ADC_RESL
      00000360H   EDATA    ---       adc_state
*SFR* 000000DEH   DATA     BYTE      ADCCFG
      000004DEH   EDATA    FLOAT     alpha
      0000079BH   EDATA    FLOAT     angle_speed
      00000563H   EDATA    FLOAT     angle_x
      00FF32FDH   CODE     ---       ascii_font_6x8
      00FF212DH   CODE     ---       ascii_font_8x16
*DEL*:00000000H   CODE     ---       ATAN?_
*SFR* 000000EFH   DATA     BYTE      AUXINTIF
*SFR* 0000008EH   DATA     BYTE      AUXR
*SFR* 00000097H   DATA     BYTE      AUXR2
      000003CDH   EDATA    CHAR      barrier
      000003EAH   EDATA    CHAR      barrier_count
      000003CBH   EDATA    CHAR      bizhang
      0000030FH   EDATA    FLOAT     bizhang_inc
      000011BBH   EDATA    CHAR      bizhang_order
      000003C1H   EDATA    ---       bizhang_window
      000011BDH   EDATA    CHAR      bizhangSTARTFlag
*DEL*:00000000H   CODE     ---       bluetooth_ch9141_init
*DEL*:00000000H   CODE     ---       bluetooth_ch9141_read_buff
*DEL*:00000000H   CODE     ---       bluetooth_ch9141_send_buff
      00FF0066H   CODE     ---       bluetooth_ch9141_uart_callback
      00FF98EDH   CODE     ---       board_init
      000012CBH   EDATA    ---       busy
*SFR* 000000F1H   DATA     BYTE      CANICR
      00FF89D8H   CODE     ---       car_pre_init
*DEL*:00000000H   CODE     ---       ccd_collect
      00000009H   EDATA    ---       ccd_data_ch1
      00000109H   EDATA    ---       ccd_data_ch2
*DEL*:00000000H   CODE     ---       ccd_init
*DEL*:00000000H   CODE     ---       ccd_send_data
      000003BFH   EDATA    INT       cir_inc
      0000030EH   EDATA    CHAR      circle_count
      0000031BH   EDATA    INT       circle_inc
      00000322H   EDATA    CHAR      circle_L
      00000327H   EDATA    CHAR      circle_R
      00FFA451H   CODE     ---       clock_init
*SFR* 000000E6H   DATA     BYTE      CMPCR1
*SFR* 000000E7H   DATA     BYTE      CMPCR2
      00000375H   EDATA    ---       collection_shizi
      000003D1H   EDATA    ---       collection_shizi_R
*DEL*:00000000H   CODE     ---       COS?_
*DEL*:00000000H   CODE     ---       CRC_CHECK
      0000030DH   EDATA    CHAR      cricle_count_order
L251 LINKER/LOCATER V4.66.93.0                                                        07/15/2024  23:31:17  PAGE 25


      000011B9H   EDATA    CHAR      cricle_function_switch
      000011BCH   EDATA    CHAR      cricle_order
      00FF9BDCH   CODE     ---       ctimer_count_clean
      00FF9D45H   CODE     ---       ctimer_count_init
      00FF95DEH   CODE     ---       ctimer_count_read
*DEL*:00000000H   CODE     ---       data_conversion
      00FFA314H   CODE     ---       delay_init
      00FFA151H   CODE     ---       delay_ms
      00FFA186H   CODE     ---       delay_us
      00FF000EH   CODE     ---       DisableGlobalIRQ
*DEL*:00000000H   CODE     ---       disalbe_icache
      00000B1CH   EDATA    CHAR      distance_protect
      00001385H   EDATA    WORD      dl1a_distance_mm
      00001387H   EDATA    BYTE      dl1a_finsh_flag
*DEL*:00000000H   CODE     ---       dl1a_get_distance
*DEL*:00000000H   CODE     ---       dl1a_init
      00FF00A6H   CODE     ---       dl1b_default_configuration
      00001335H   EDATA    WORD      dl1b_distance_mm
      00001337H   EDATA    BYTE      dl1b_finsh_flag
*DEL*:00000000H   CODE     ---       dl1b_get_distance
*DEL*:00000000H   CODE     ---       dl1b_iic_transfer_8bit_array
*DEL*:00000000H   CODE     ---       dl1b_init
      00001338H   EDATA    BYTE      dl1b_init_flag
*SFR* 000000EDH   DATA     BYTE      DMAIR
*SFR* 00000083H   DATA     BYTE      DPH
*SFR* 00000082H   DATA     BYTE      DPL
*SFR* 000000A8H.7 DATA     BIT       EA
*DEL*:00000000H   CODE     ---       eeprom_trig
      00FF0006H   CODE     ---       EnableGlobalIRQ
*DEL*:00000000H   CODE     ---       enalbe_icache
*DEL*:00000000H   CODE     ---       encoder_angle_simspi
*DEL*:00000000H   CODE     ---       encoder_angle_spi
*DEL*:00000000H   CODE     ---       encoder_delay_us
*DEL*:00000000H   CODE     ---       encoder_init_simspi
*DEL*:00000000H   CODE     ---       encoder_init_spi
*DEL*:00000000H   CODE     ---       encoder_self4_check
*DEL*:00000000H   CODE     ---       encoder_self5_check
*DEL*:00000000H   CODE     ---       encoder_simspi_r_reg_byte
*DEL*:00000000H   CODE     ---       encoder_simspi_w_reg_byte
*DEL*:00000000H   CODE     ---       encoder_spi_r_reg_byte
*DEL*:00000000H   CODE     ---       encoder_spi_w_reg_byte
      00000B14H   EDATA    FLOAT     error
      00000B18H   EDATA    FLOAT     error_heng
      00000B2AH   EDATA    FLOAT     error_shu
      00000B0AH   EDATA    FLOAT     error_shu2
      00000B0EH   EDATA    FLOAT     error_shuA
      00000B22H   EDATA    FLOAT     error_xie
*SFR* 000000A8H.4 DATA     BIT       ES
*SFR* 000000A8H.1 DATA     BIT       ET0
*SFR* 000000A8H.3 DATA     BIT       ET1
*SFR* 000000A8H.0 DATA     BIT       EX0
*SFR* 000000A8H.2 DATA     BIT       EX1
*DEL*:00000000H   CODE     ---       exit_init
*SFR* 000000D0H.5 DATA     BIT       F0
      00FFA4B5H   CODE     ---       FABS?_
*DEL*:00000000H   CODE     ---       FCLEX
*DEL*:00000000H   CODE     ---       fifo_clear
*DEL*:00000000H   CODE     ---       fifo_init
*DEL*:00000000H   CODE     ---       fifo_read_buffer
*DEL*:00000000H   CODE     ---       fifo_read_element
*DEL*:00000000H   CODE     ---       fifo_read_tail_buffer
*DEL*:00000000H   CODE     ---       fifo_used
      00FF795DH   CODE     ---       fifo_write_buffer
*DEL*:00000000H   CODE     ---       fifo_write_element
*DEL*:00000000H   CODE     ---       FINIT
L251 LINKER/LOCATER V4.66.93.0                                                        07/15/2024  23:31:17  PAGE 26


      000003CCH   EDATA    CHAR      flag_barrier
      000003E7H   EDATA    CHAR      flag_circle
      00000326H   EDATA    CHAR      flag_shizi
      000003B9H   EDATA    CHAR      flag_SHIZI_KNN
      000003BEH   EDATA    CHAR      flag_shizi_R
      000003D0H   EDATA    CHAR      flag_zhijiao
      000007D4H   EDATA    FLOAT     forward_flag
      00FFA1EBH   CODE     ---       forwardfeed_L
      00FFA219H   CODE     ---       forwardfeed_R
      00FFA1B9H   CODE     ---       forwardfeed_turn
*DEL*:00000000H   CODE     ---       FPCRR
*DEL*:00000000H   CODE     ---       FPCRW
*DEL*:00000000H   CODE     ---       FPSRR
*DEL*:00000000H   CODE     ---       FPSRW
*DEL*:00000000H   CODE     ---       func_double_to_str
*DEL*:00000000H   CODE     ---       func_float_to_str
*DEL*:00000000H   CODE     ---       func_get_greatest_common_divisor
*DEL*:00000000H   CODE     ---       func_hex_to_str
*DEL*:00000000H   CODE     ---       func_int_to_str
*DEL*:00000000H   CODE     ---       func_soft_delay
*DEL*:00000000H   CODE     ---       func_str_to_double
*DEL*:00000000H   CODE     ---       func_str_to_float
*DEL*:00000000H   CODE     ---       func_str_to_hex
*DEL*:00000000H   CODE     ---       func_str_to_int
*DEL*:00000000H   CODE     ---       func_str_to_uint
*DEL*:00000000H   CODE     ---       func_uint_to_str
*DEL*:00000000H   CODE     ---       FXAM
      00FF8C72H   CODE     ---       get_adc
      00FF58FBH   CODE     ---       gpio_mode
*DEL*:00000000H   CODE     ---       gpio_pull_set
      000004FAH   EDATA    FLOAT     gyro_x
      000004FEH   EDATA    FLOAT     gyro_y
      00000502H   EDATA    FLOAT     gyro_z
      00FF92D3H   CODE     ---       gyroOffsetInit
      000003CEH   EDATA    INT       HUANDAO_Lyuzhi
      000003E5H   EDATA    INT       HUANDAO_Ryuzhi
      00FF946CH   CODE     ---       I2C_RecvBytes
*DEL*:00000000H   CODE     ---       I2C_SendBytes
*SFR* 000000F6H   DATA     BYTE      IAP_ADDRE
*SFR* 000000C3H   DATA     BYTE      IAP_ADDRH
*SFR* 000000C4H   DATA     BYTE      IAP_ADDRL
*SFR* 000000C5H   DATA     BYTE      IAP_CMD
*SFR* 000000C7H   DATA     BYTE      IAP_CONTR
*SFR* 000000C2H   DATA     BYTE      IAP_DATA
*DEL*:00000000H   CODE     ---       iap_erase_page
*DEL*:00000000H   CODE     ---       iap_get_cmd_state
*DEL*:00000000H   CODE     ---       iap_idle
*DEL*:00000000H   CODE     ---       iap_init
*DEL*:00000000H   CODE     ---       iap_read_bytes
*DEL*:00000000H   CODE     ---       iap_set_tps
*SFR* 000000F5H   DATA     BYTE      IAP_TPS
*SFR* 000000C6H   DATA     BYTE      IAP_TRIG
*DEL*:00000000H   CODE     ---       iap_write_bytes
      00FFA49DH   CODE     ---       ICacheOn
*SFR* 000000F7H   DATA     BYTE      ICHECR
*DEL*:00000000H   CODE     ---       icm20602_acc_transition
      00000ED7H   EDATA    INT       icm20602_acc_x
      00000ED9H   EDATA    INT       icm20602_acc_y
      00000EDBH   EDATA    INT       icm20602_acc_z
*DEL*:00000000H   CODE     ---       icm20602_get_acc
*DEL*:00000000H   CODE     ---       icm20602_get_gyro
*DEL*:00000000H   CODE     ---       icm20602_gyro_transition
      00000EDDH   EDATA    INT       icm20602_gyro_x
      00000EDFH   EDATA    INT       icm20602_gyro_y
      00000EE1H   EDATA    INT       icm20602_gyro_z
L251 LINKER/LOCATER V4.66.93.0                                                        07/15/2024  23:31:17  PAGE 27


*DEL*:00000000H   CODE     ---       icm20602_init
*SFR* 000000A8H   DATA     BYTE      IE
*SFR* 000000AFH   DATA     BYTE      IE2
*DEL*:00000000H   CODE     ---       iic_change_pin
*DEL*:00000000H   CODE     ---       iic_delay_us
*DEL*:00000000H   CODE     ---       iic_init
*DEL*:00000000H   CODE     ---       iic_read_reg
*DEL*:00000000H   CODE     ---       iic_read_reg_bytes
*DEL*:00000000H   CODE     ---       iic_write_reg
*DEL*:00000000H   CODE     ---       imu660ra_acc_transition
      00000EE3H   EDATA    INT       imu660ra_acc_x
      00000EE5H   EDATA    INT       imu660ra_acc_y
      00000EE7H   EDATA    INT       imu660ra_acc_z
      00FF012DH   CODE     ---       imu660ra_config_file
      00FF9E3DH   CODE     ---       imu660ra_get_acc
      00FF9DEDH   CODE     ---       imu660ra_get_gyro
      00FF973CH   CODE     ---       imu660ra_gyro_transition
      00000EE9H   EDATA    INT       imu660ra_gyro_x
      00000EEBH   EDATA    INT       imu660ra_gyro_y
      00000EEDH   EDATA    INT       imu660ra_gyro_z
      00FF9692H   CODE     ---       imu660ra_init
*DEL*:00000000H   CODE     ---       imu963ra_acc_transition
      00000D28H   EDATA    INT       imu963ra_acc_x
      00000D2AH   EDATA    INT       imu963ra_acc_y
      00000D2CH   EDATA    INT       imu963ra_acc_z
*DEL*:00000000H   CODE     ---       imu963ra_get_acc
*DEL*:00000000H   CODE     ---       imu963ra_get_gyro
*DEL*:00000000H   CODE     ---       imu963ra_get_mag
*DEL*:00000000H   CODE     ---       imu963ra_gyro_transition
      00000D34H   EDATA    INT       imu963ra_gyro_x
      00000D36H   EDATA    INT       imu963ra_gyro_y
      00000D38H   EDATA    INT       imu963ra_gyro_z
*DEL*:00000000H   CODE     ---       imu963ra_init
*DEL*:00000000H   CODE     ---       imu963ra_mag_transition
      00000D2EH   EDATA    INT       imu963ra_mag_x
      00000D30H   EDATA    INT       imu963ra_mag_y
      00000D32H   EDATA    INT       imu963ra_mag_z
      00FF8DAFH   CODE     ---       IncPID
      0000053EH   EDATA    INT       init_gyro_x
      00000544H   EDATA    INT       init_gyro_y
      0000054AH   EDATA    INT       init_gyro_z
      00FF0096H   CODE     ---       INT0_Isr
      00FF000AH   CODE     ---       INT1_Isr
      00FF009EH   CODE     ---       INT2_Isr
      00FFA4CFH   CODE     ---       INT3_Isr
      00FFA4D3H   CODE     ---       INT4_Isr
*SFR* 0000008FH   DATA     BYTE      INTCLKO
*SFR* 000000B8H   DATA     BYTE      IP
*SFR* 000000B5H   DATA     BYTE      IP2
*SFR* 000000B6H   DATA     BYTE      IP2H
*SFR* 000000DFH   DATA     BYTE      IP3
*SFR* 000000EEH   DATA     BYTE      IP3H
*SFR* 000000B7H   DATA     BYTE      IPH
      00FFA00BH   CODE     ---       IPS
      00FF9B1FH   CODE     ---       ips114_clear
*DEL*:00000000H   CODE     ---       ips114_clear_simspi
*DEL*:00000000H   CODE     ---       ips114_drawpoint
*DEL*:00000000H   CODE     ---       ips114_drawpoint_simspi
      00FF8862H   CODE     ---       ips114_init
*DEL*:00000000H   CODE     ---       ips114_init_simspi
      00FF9D99H   CODE     ---       ips114_set_region
*DEL*:00000000H   CODE     ---       ips114_set_region_simspi
      00FF93ADH   CODE     ---       ips114_showchar
*DEL*:00000000H   CODE     ---       ips114_showchar_simspi
*DEL*:00000000H   CODE     ---       ips114_showfloat
L251 LINKER/LOCATER V4.66.93.0                                                        07/15/2024  23:31:17  PAGE 28


*DEL*:00000000H   CODE     ---       ips114_showfloat_simspi
      00FF8FE4H   CODE     ---       ips114_showint16
*DEL*:00000000H   CODE     ---       ips114_showint16_simspi
*DEL*:00000000H   CODE     ---       ips114_showint32
*DEL*:00000000H   CODE     ---       ips114_showint32_simspi
*DEL*:00000000H   CODE     ---       ips114_showint8
*DEL*:00000000H   CODE     ---       ips114_showint8_simspi
      00FF9C39H   CODE     ---       ips114_showstr
*DEL*:00000000H   CODE     ---       ips114_showstr_simspi
*DEL*:00000000H   CODE     ---       ips114_showuint16
*DEL*:00000000H   CODE     ---       ips114_showuint16_simspi
*DEL*:00000000H   CODE     ---       ips114_showuint8
*DEL*:00000000H   CODE     ---       ips114_showuint8_simspi
      00FFA43CH   CODE     ---       ips114_writeData
      00FFA29FH   CODE     ---       ips114_writedata_16bit
*DEL*:00000000H   CODE     ---       ips114_writeData_simspi
*DEL*:00000000H   CODE     ---       ips114_writeDatai_16bit_simspi
      00FFA427H   CODE     ---       ips114_writeIndex
*DEL*:00000000H   CODE     ---       ips114_writeIndex_simspi
*DEL*:00000000H   CODE     ---       ips200_clear
*DEL*:00000000H   CODE     ---       ips200_draw_line
*DEL*:00000000H   CODE     ---       ips200_draw_point
*DEL*:00000000H   CODE     ---       ips200_full
*DEL*:00000000H   CODE     ---       ips200_init_spi
*DEL*:00000000H   CODE     ---       ips200_set_color
*DEL*:00000000H   CODE     ---       ips200_set_dir
*DEL*:00000000H   CODE     ---       ips200_set_font
*DEL*:00000000H   CODE     ---       ips200_show_char
*DEL*:00000000H   CODE     ---       ips200_show_chinese
*DEL*:00000000H   CODE     ---       ips200_show_float
*DEL*:00000000H   CODE     ---       ips200_show_int
*DEL*:00000000H   CODE     ---       ips200_show_string
*DEL*:00000000H   CODE     ---       ips200_show_uint
*DEL*:00000000H   CODE     ---       ips200_show_wave
*DEL*:00000000H   CODE     ---       ips200_write_16bit_data_spi
*DEL*:00000000H   CODE     ---       ips200_write_8bit_data_spi
      000007E8H   EDATA    INT       ips_counter
      00000826H   EDATA    CHAR      ips_page
      00FF4526H   CODE     ---       IPS_page_show
*SFR* 0000009DH   DATA     BYTE      IRCBAND
*SFR* 0000009FH   DATA     BYTE      IRTRIM
*SFR* 00000088H.0 DATA     BIT       IT0
*SFR* 00000088H.2 DATA     BIT       IT1
      00FF4FB2H   CODE     ---       judge
      00000B12H   EDATA    INT       judge_sign
      00FF82AEH   CODE     ---       key
      000011B8H   EDATA    CHAR      key_function_flag
      000007B7H   EDATA    INT       l_encoder
      000007A3H   EDATA    FLOAT     l_endspeed
      000007D8H   EDATA    FLOAT     l_error
      00000289H   EDATA    ---       L_pid
      00000506H   EDATA    FLOAT     l_pwm
      000007CCH   EDATA    FLOAT     l_speed
      000007BFH   EDATA    FLOAT     l_target_speed
      000004EEH   EDATA    FLOAT     last_acc_x
      000004F2H   EDATA    FLOAT     last_acc_y
      000004F6H   EDATA    FLOAT     last_acc_z
      0000053AH   EDATA    FLOAT     last_gyro_x
      00000540H   EDATA    FLOAT     last_gyro_y
      00000546H   EDATA    FLOAT     last_gyro_z
      000007ABH   EDATA    FLOAT     last_in_L
      000007B3H   EDATA    FLOAT     last_in_R
      000007A7H   EDATA    FLOAT     last_in_turn
      0000054CH   EDATA    FLOAT     last_l_pwm
      00000550H   EDATA    FLOAT     last_r_pwm
L251 LINKER/LOCATER V4.66.93.0                                                        07/15/2024  23:31:17  PAGE 29


*DEL*:00000000H   CODE     ---       lcd_clear
*DEL*:00000000H   CODE     ---       lcd_clear_simspi
*DEL*:00000000H   CODE     ---       lcd_drawpoint
*DEL*:00000000H   CODE     ---       lcd_drawpoint_simspi
*DEL*:00000000H   CODE     ---       lcd_init
*DEL*:00000000H   CODE     ---       lcd_init_simspi
*DEL*:00000000H   CODE     ---       lcd_set_region
*DEL*:00000000H   CODE     ---       lcd_set_region_simspi
*DEL*:00000000H   CODE     ---       lcd_showchar
*DEL*:00000000H   CODE     ---       lcd_showchar_simspi
*DEL*:00000000H   CODE     ---       lcd_showfloat
*DEL*:00000000H   CODE     ---       lcd_showfloat_simspi
*DEL*:00000000H   CODE     ---       lcd_showint16
*DEL*:00000000H   CODE     ---       lcd_showint16_simspi
*DEL*:00000000H   CODE     ---       lcd_showint32
*DEL*:00000000H   CODE     ---       lcd_showint32_simspi
*DEL*:00000000H   CODE     ---       lcd_showint8
*DEL*:00000000H   CODE     ---       lcd_showint8_simspi
*DEL*:00000000H   CODE     ---       lcd_showstr
*DEL*:00000000H   CODE     ---       lcd_showstr_simspi
*DEL*:00000000H   CODE     ---       lcd_showuint16
*DEL*:00000000H   CODE     ---       lcd_showuint16_simspi
*DEL*:00000000H   CODE     ---       lcd_showuint8
*DEL*:00000000H   CODE     ---       lcd_showuint8_simspi
*DEL*:00000000H   CODE     ---       lcd_writeData
*DEL*:00000000H   CODE     ---       lcd_writedata_16bit
*DEL*:00000000H   CODE     ---       lcd_writeData_16bit_simspi
*DEL*:00000000H   CODE     ---       lcd_writeData_simspi
*DEL*:00000000H   CODE     ---       lcd_writeIndex
*DEL*:00000000H   CODE     ---       lcd_writeIndex_simspi
      00001210H   EDATA    ---       Lidar1
*SFR* 000000F9H   DATA     BYTE      LINICR
*DEL*:00000000H   CODE     ---       LunaReadAmp
      00FF9EDCH   CODE     ---       LunaReadDist
*DEL*:00000000H   CODE     ---       LunaReadTemp
      00FFA274H   CODE     ---       main
      00000328H   EDATA    ---       mask
      00FFA2EFH   CODE     ---       memcpy?_
*DEL*:00000000H   CODE     ---       memset?_
      000002E9H   EDATA    ---       ml_pid
      00FF68F8H   CODE     ---       motor
      000003BAH   EDATA    FLOAT     motor_inc
      000011BAH   EDATA    CHAR      motor_start
      00000F1FH   EDATA    INT       mpu6050_acc_x
      00000F21H   EDATA    INT       mpu6050_acc_y
      00000F23H   EDATA    INT       mpu6050_acc_z
*DEL*:00000000H   CODE     ---       mpu6050_get_accdata
*DEL*:00000000H   CODE     ---       mpu6050_get_gyro
      00000F25H   EDATA    INT       mpu6050_gyro_x
      00000F27H   EDATA    INT       mpu6050_gyro_y
      00000F29H   EDATA    INT       mpu6050_gyro_z
*DEL*:00000000H   CODE     ---       mpu6050_init
*DEL*:00000000H   CODE     ---       mpu6050_simiic_read_reg
*DEL*:00000000H   CODE     ---       mpu6050_simiic_read_regs
      00000209H   EDATA    ---       mr_pid
      00FF374DH   CODE     ---       multistage_pid
*DEL*:00000000H   CODE     ---       multistage_pid_turn
      00000B26H   EDATA    FLOAT     new_error
      00000556H   EDATA    FLOAT     new_gyro_x
      0000055AH   EDATA    FLOAT     new_gyro_y
      0000055EH   EDATA    FLOAT     new_gyro_z
*DEL*:00000000H   CODE     ---       NVIC_SetPriority
      00FF3525H   CODE     ---       oled_6x8
      00FF271DH   CODE     ---       oled_8x16
*DEL*:00000000H   CODE     ---       oled_clrpixel
L251 LINKER/LOCATER V4.66.93.0                                                        07/15/2024  23:31:17  PAGE 30


*DEL*:00000000H   CODE     ---       oled_clrpixel_spi
*DEL*:00000000H   CODE     ---       oled_dis_bmp
*DEL*:00000000H   CODE     ---       oled_dis_bmp_spi
*DEL*:00000000H   CODE     ---       oled_fill
*DEL*:00000000H   CODE     ---       oled_fill_spi
*DEL*:00000000H   CODE     ---       oled_hexascii
*DEL*:00000000H   CODE     ---       oled_hexascii_spi
*DEL*:00000000H   CODE     ---       oled_init
*DEL*:00000000H   CODE     ---       oled_init_spi
*DEL*:00000000H   CODE     ---       oled_int16
*DEL*:00000000H   CODE     ---       oled_int16_spi
      00001415H   EDATA    INT       OLED_Open
*DEL*:00000000H   CODE     ---       oled_p6x8str
*DEL*:00000000H   CODE     ---       oled_p6x8str_spi
*DEL*:00000000H   CODE     ---       oled_p8x16str
*DEL*:00000000H   CODE     ---       oled_p8x16str_spi
*DEL*:00000000H   CODE     ---       oled_print_chinese
*DEL*:00000000H   CODE     ---       oled_print_chinese_spi
*DEL*:00000000H   CODE     ---       oled_printf_float
*DEL*:00000000H   CODE     ---       oled_printf_float_spi
*DEL*:00000000H   CODE     ---       oled_printf_int32
*DEL*:00000000H   CODE     ---       oled_printf_int32_spi
*DEL*:00000000H   CODE     ---       oled_putpixel
*DEL*:00000000H   CODE     ---       oled_putpixel_spi
*DEL*:00000000H   CODE     ---       oled_set_pos
*DEL*:00000000H   CODE     ---       oled_set_pos_spi
*DEL*:00000000H   CODE     ---       oled_uint16
*DEL*:00000000H   CODE     ---       oled_uint16_spi
*DEL*:00000000H   CODE     ---       oled_wrcmd
*DEL*:00000000H   CODE     ---       oled_wrcmd_spi
*DEL*:00000000H   CODE     ---       oled_wrdat
*DEL*:00000000H   CODE     ---       oled_wrdat_spi
*SFR* 00000080H   DATA     BYTE      P0
*SFR* 00000080H.2 DATA     BIT       P02
*SFR* 00000080H.4 DATA     BIT       P04
*SFR* 00000080H.7 DATA     BIT       P07
*SFR* 00000094H   DATA     BYTE      P0M0
*SFR* 00000093H   DATA     BYTE      P0M1
*SFR* 00000090H   DATA     BYTE      P1
*SFR* 00000090H.6 DATA     BIT       P16
*SFR* 00000090H.7 DATA     BIT       P17
*SFR* 00000092H   DATA     BYTE      P1M0
*SFR* 00000091H   DATA     BYTE      P1M1
*SFR* 000000A0H   DATA     BYTE      P2
*SFR* 000000A0H.0 DATA     BIT       P20
*SFR* 000000A0H.1 DATA     BIT       P21
*SFR* 000000A0H.2 DATA     BIT       P22
*SFR* 000000A0H.3 DATA     BIT       P23
*SFR* 000000A0H.4 DATA     BIT       P24
*SFR* 000000A0H.5 DATA     BIT       P25
*SFR* 000000A0H.6 DATA     BIT       P26
*SFR* 000000A0H.7 DATA     BIT       P27
*SFR* 00000096H   DATA     BYTE      P2M0
*SFR* 00000095H   DATA     BYTE      P2M1
*SFR* 000000B0H   DATA     BYTE      P3
*SFR* 000000B0H.0 DATA     BIT       P30
*SFR* 000000B0H.1 DATA     BIT       P31
*SFR* 000000B0H.2 DATA     BIT       P32
*SFR* 000000B0H.5 DATA     BIT       P35
*SFR* 000000B0H.6 DATA     BIT       P36
*SFR* 000000B0H.7 DATA     BIT       P37
*SFR* 000000B2H   DATA     BYTE      P3M0
*SFR* 000000B1H   DATA     BYTE      P3M1
*SFR* 000000C0H   DATA     BYTE      P4
*SFR* 000000C0H.0 DATA     BIT       P40
L251 LINKER/LOCATER V4.66.93.0                                                        07/15/2024  23:31:17  PAGE 31


*SFR* 000000C0H.1 DATA     BIT       P41
*SFR* 000000C0H.2 DATA     BIT       P42
*SFR* 000000C0H.3 DATA     BIT       P43
*SFR* 000000C0H.5 DATA     BIT       P45
*SFR* 000000B4H   DATA     BYTE      P4M0
*SFR* 000000B3H   DATA     BYTE      P4M1
*SFR* 000000C8H   DATA     BYTE      P5
*SFR* 000000C8H.0 DATA     BIT       P50
*SFR* 000000C8H.1 DATA     BIT       P51
*SFR* 000000C8H.2 DATA     BIT       P52
*SFR* 000000C8H.3 DATA     BIT       P53
*SFR* 000000CAH   DATA     BYTE      P5M0
*SFR* 000000C9H   DATA     BYTE      P5M1
*SFR* 000000E8H   DATA     BYTE      P6
*SFR* 000000CCH   DATA     BYTE      P6M0
*SFR* 000000CBH   DATA     BYTE      P6M1
*SFR* 000000F8H   DATA     BYTE      P7
*SFR* 000000E2H   DATA     BYTE      P7M0
*SFR* 000000E1H   DATA     BYTE      P7M1
*SFR* 000000A2H   DATA     BYTE      P_SW1
*SFR* 000000BAH   DATA     BYTE      P_SW2
*SFR* 000000BBH   DATA     BYTE      P_SW3
      000007EAH   EDATA    ---       page_buf
*SFR* 00000087H   DATA     BYTE      PCON
      00FF97E4H   CODE     ---       PID_init
      00FFA115H   CODE     ---       PID_Set
      00FF9E8DH   CODE     ---       PID_turnSet
      00FF91EEH   CODE     ---       pit_timer_ms
      00FFA465H   CODE     ---       pow2
      00000B2EH   EDATA    FLOAT     pow_error
      00FF6208H   CODE     NEAR LAB  printf
*DEL*:00000000H   CODE     ---       PstPID
*SFR* 000000D0H   DATA     BYTE      PSW
      00FFA479H   CODE     ---       putchar
      00FFABB1H   HCONST   ---       PWM_ARR_ADDR
      00FFABB9H   HCONST   ---       PWM_CCER_ADDR
      00FFABC9H   HCONST   ---       PWM_CCMR_ADDR
      00FFAB91H   HCONST   ---       PWM_CCR_ADDR
      00FF8ECCH   CODE     ---       pwm_duty
*DEL*:00000000H   CODE     ---       pwm_freq
      00FF7583H   CODE     ---       pwm_init
      00FF7CEFH   CODE     ---       pwm_set_gpio
      000007B9H   EDATA    INT       r_encoder
      000007AFH   EDATA    FLOAT     r_endspeed
      0000079FH   EDATA    FLOAT     r_error
      000007E0H   EDATA    FLOAT     r_last_speed
      000002C9H   EDATA    ---       R_pid
      0000050AH   EDATA    FLOAT     r_pwm
      000007D0H   EDATA    FLOAT     r_speed
      000007C3H   EDATA    FLOAT     r_target_speed
*DEL*:00000000H   CODE     ---       recv_ack
*DEL*:00000000H   CODE     ---       recv_data
*SFR* 000000FFH   DATA     BYTE      RSTCFG
*SFR* 0000009BH   DATA     BYTE      S2BUF
*SFR* 0000009AH   DATA     BYTE      S2CON
*SFR* 000000ADH   DATA     BYTE      S3BUF
*SFR* 000000ACH   DATA     BYTE      S3CON
*SFR* 000000FEH   DATA     BYTE      S4BUF
*SFR* 000000FDH   DATA     BYTE      S4CON
      00000229H   EDATA    ---       s_pid
      000003B5H   EDATA    FLOAT     s_r
      000003EBH   EDATA    FLOAT     s_r_LSHIZI
      00000309H   EDATA    FLOAT     s_r_RSHIZI
      0000036FH   EDATA    FLOAT     s_r_RYUAN
      0000036BH   EDATA    FLOAT     s_r_SHIZI
L251 LINKER/LOCATER V4.66.93.0                                                        07/15/2024  23:31:17  PAGE 32


      00000313H   EDATA    FLOAT     s_r_WSHIZI
*SFR* 00000099H   DATA     BYTE      SBUF
*SFR* 00000098H   DATA     BYTE      SCON
*DEL*:00000000H   CODE     ---       seekfree_assistant_data_analysis
*DEL*:00000000H   CODE     ---       seekfree_assistant_init
      000003EFH   EDATA    ---       seekfree_assistant_oscilloscope_data
*DEL*:00000000H   CODE     ---       seekfree_assistant_oscilloscope_send
      00000432H   EDATA    ---       seekfree_assistant_parameter
      0000042AH   EDATA    ---       seekfree_assistant_parameter_update_flag
      00001369H   EDATA    ---       seekfree_assistant_receive
      0000136BH   EDATA    ---       seekfree_assistant_transfer
*DEL*:00000000H   CODE     ---       send_ack
*DEL*:00000000H   CODE     ---       send_data
*DEL*:00000000H   CODE     ---       send_nak
      00FF6F57H   CODE     ---       set_clk
      000007DCH   EDATA    FLOAT     set_turn
*DEL*:00000000H   CODE     ---       set_zero_position_simspi
*DEL*:00000000H   CODE     ---       set_zero_position_spi
      00000373H   EDATA    INT       shizi_count
      000003E8H   EDATA    INT       SHIZI_Ryuzhi
      00000324H   EDATA    INT       SHIZI_yuzhi
*DEL*:00000000H   CODE     ---       showimage
*DEL*:00000000H   CODE     ---       simspi_r_reg_byte
*DEL*:00000000H   CODE     ---       simspi_w_reg_byte
*DEL*:00000000H   CODE     ---       simspi_wr_byte
*DEL*:00000000H   CODE     ---       SIN?_
*SFR* 000000CEH   DATA     BYTE      SPCTL
*SFR* 000000CFH   DATA     BYTE      SPDAT
*DEL*:00000000H   CODE     ---       spi_change_mode
*DEL*:00000000H   CODE     ---       spi_change_pin
      00FF90F9H   CODE     ---       spi_init
      00FFA48BH   CODE     ---       spi_mosi
*DEL*:00000000H   CODE     ---       spi_r_reg_byte
*DEL*:00000000H   CODE     ---       spi_w_reg_byte
*DEL*:00000000H   CODE     ---       spi_wr_byte
      00FF6234H   CODE     NEAR LAB  sprintf
*SFR* 000000CDH   DATA     BYTE      SPSTAT
      00FF0086H   CODE     ---       SQRT?_
*DEL*:00000000H   CODE     ---       start
      00000269H   EDATA    ---       Steer_pid
*DEL*:00000000H   CODE     ---       stop
      00000317H   EDATA    FLOAT     straight_inc
*DEL*:00000000H   CODE     ---       strlen?_
      000011BEH   EDATA    INT       switch_shizi_circle
      000012FDH   EDATA    LONG      sys_clk
      00000B1EH   EDATA    DWORD     SysTickFlag
      000007C7H   EDATA    FLOAT     T
*SFR* 000000D6H   DATA     BYTE      T2H
*SFR* 000000D7H   DATA     BYTE      T2L
*SFR* 000000D4H   DATA     BYTE      T3H
*SFR* 000000D5H   DATA     BYTE      T3L
*SFR* 000000D2H   DATA     BYTE      T4H
*SFR* 000000D3H   DATA     BYTE      T4L
*SFR* 000000DDH   DATA     BYTE      T4T3M
*SFR* 000000AEH   DATA     BYTE      TA
*DEL*:00000000H   CODE     ---       TAN?_
      0000031DH   EDATA    FLOAT     target_speed_save
*SFR* 00000088H   DATA     BYTE      TCON
      00000B1DH   EDATA    BYTE      temp_count
      00000554H   EDATA    INT       text
      00FF2D0DH   CODE     ---       tft_ascii
*SFR* 0000008CH   DATA     BYTE      TH0
*SFR* 0000008DH   DATA     BYTE      TH1
      000007E4H   EDATA    INT       time_counter
*SFR* 0000008AH   DATA     BYTE      TL0
L251 LINKER/LOCATER V4.66.93.0                                                        07/15/2024  23:31:17  PAGE 33


*SFR* 0000008BH   DATA     BYTE      TL1
      00FF0012H   CODE     ---       TM0_Isr
      00FF84D1H   CODE     ---       TM1_Isr
      00FFA4D7H   CODE     ---       TM2_Isr
      00FFA4DBH   CODE     ---       TM3_Isr
      00FFA4DFH   CODE     ---       TM4_Isr
*SFR* 00000089H   DATA     BYTE      TMOD
*SFR* 00000088H.4 DATA     BIT       TR0
*SFR* 00000088H.6 DATA     BIT       TR1
      00000008H   EDATA    BYTE      tsl1401_finish_flag
      000007CBH   EDATA    CHAR      turn_count
      000002A9H   EDATA    ---       turn_pid
      00FF8B2AH   CODE     ---       turn_PstPID
      000007BBH   EDATA    FLOAT     turn_speed
      00FFA056H   CODE     ---       UART1_Isr
      00FFA3F3H   CODE     ---       UART2_Isr
      00FFA40DH   CODE     ---       UART3_Isr
      00FF9B7EH   CODE     ---       UART4_Isr
      00FF7FFBH   CODE     ---       uart_init
*DEL*:00000000H   CODE     ---       uart_putbuff
      00FF9964H   CODE     ---       uart_putchar
*DEL*:00000000H   CODE     ---       uart_putstr
*SFR* 000000F4H   DATA     BYTE      USBCON
      00FFA4BCH   CODE     ---       User_I2C_Init
      00001009H   EDATA    ---       virtual_scope_data
*SFR* 000000A6H   DATA     BYTE      VRTRIM
      00000249H   EDATA    ---       w_pid
*DEL*:00000000H   CODE     ---       wait
*SFR* 000000C1H   DATA     BYTE      WDT_CONTR
      000013B5H   EDATA    INT       wireless_type
      00FFA3D9H   CODE     ---       wireless_uart_callback
*DEL*:00000000H   CODE     ---       wireless_uart_init
*DEL*:00000000H   CODE     ---       wireless_uart_read_buff
*DEL*:00000000H   CODE     ---       wireless_uart_send_buff
*DEL*:00000000H   CODE     ---       wireless_uart_send_byte
*SFR* 000000E9H   DATA     BYTE      WTST
      000004E2H   EDATA    FLOAT     x_inc
      00000567H   EDATA    FLOAT     Xdata
      000004E6H   EDATA    FLOAT     y_inc
      0000056BH   EDATA    FLOAT     Ydata
      00FF86DEH   CODE     ---       YUANHUAN
      000004EAH   EDATA    FLOAT     z_inc
      0000056FH   EDATA    FLOAT     Zdata
      00001309H   EDATA    WORD      zf_delay_ms
      0000130BH   EDATA    WORD      zf_delay_us
*DEL*:00000000H   CODE     ---       zf_sprintf
      00000321H   EDATA    CHAR      zhijiao_L
      00000323H   EDATA    CHAR      zhijiao_R



SYMBOL TABLE OF MODULE:  .\Out_File\SEEKFREE (board)

      VALUE       REP       CLASS    TYPE      SYMBOL NAME
      ====================================================
      ---         MODULE    ---      ---       board
      00FF0006H   PUBLIC    CODE     ---       EnableGlobalIRQ
      00FF98EDH   PUBLIC    CODE     ---       board_init
      00FFA451H   PUBLIC    CODE     ---       clock_init
      00FFA49DH   PUBLIC    CODE     ---       ICacheOn
      00FF6F57H   PUBLIC    CODE     ---       set_clk
      00FF000EH   PUBLIC    CODE     ---       DisableGlobalIRQ
      00FFA479H   PUBLIC    CODE     ---       putchar
      000012FDH   PUBLIC    EDATA    LONG      sys_clk
      00000094H   SFRSYM    DATA     BYTE      P0M0
L251 LINKER/LOCATER V4.66.93.0                                                        07/15/2024  23:31:17  PAGE 34


      000000D0H   SFRSYM    DATA     BYTE      PSW
      0000009DH   SFRSYM    DATA     BYTE      IRCBAND
      00000097H   SFRSYM    DATA     BYTE      AUXR2
      000000EFH   SFRSYM    DATA     BYTE      AUXINTIF
      000000FDH   SFRSYM    DATA     BYTE      S4CON
      000000ACH   SFRSYM    DATA     BYTE      S3CON
      0000009AH   SFRSYM    DATA     BYTE      S2CON
      000000A6H   SFRSYM    DATA     BYTE      VRTRIM
      000000B7H   SFRSYM    DATA     BYTE      IPH
      000000CDH   SFRSYM    DATA     BYTE      SPSTAT
      000000DDH   SFRSYM    DATA     BYTE      T4T3M
      0000009FH   SFRSYM    DATA     BYTE      IRTRIM
      000000C1H   SFRSYM    DATA     BYTE      WDT_CONTR
      000000E9H   SFRSYM    DATA     BYTE      WTST
      000000DFH   SFRSYM    DATA     BYTE      IP3
      000000F4H   SFRSYM    DATA     BYTE      USBCON
      000000B5H   SFRSYM    DATA     BYTE      IP2
      000000FFH   SFRSYM    DATA     BYTE      RSTCFG
      000000C7H   SFRSYM    DATA     BYTE      IAP_CONTR
      000000F9H   SFRSYM    DATA     BYTE      LINICR
      0000008EH   SFRSYM    DATA     BYTE      AUXR
      000000AFH   SFRSYM    DATA     BYTE      IE2
      00000088H   SFRSYM    DATA     BYTE      TCON
      00000089H   SFRSYM    DATA     BYTE      TMOD
      00000098H   SFRSYM    DATA     BYTE      SCON
      000000F1H   SFRSYM    DATA     BYTE      CANICR
      00000087H   SFRSYM    DATA     BYTE      PCON
      000000BCH   SFRSYM    DATA     BYTE      ADC_CONTR
      000000F7H   SFRSYM    DATA     BYTE      ICHECR
      000000E7H   SFRSYM    DATA     BYTE      CMPCR2
      000000E6H   SFRSYM    DATA     BYTE      CMPCR1
      000000DEH   SFRSYM    DATA     BYTE      ADCCFG
      000000B8H   SFRSYM    DATA     BYTE      IP
      0000008FH   SFRSYM    DATA     BYTE      INTCLKO
      000000AEH   SFRSYM    DATA     BYTE      TA
      000000EEH   SFRSYM    DATA     BYTE      IP3H
      000000B6H   SFRSYM    DATA     BYTE      IP2H
      000000A8H   SFRSYM    DATA     BYTE      IE
      000000BBH   SFRSYM    DATA     BYTE      P_SW3
      000000BAH   SFRSYM    DATA     BYTE      P_SW2
      000000A2H   SFRSYM    DATA     BYTE      P_SW1
      000000CEH   SFRSYM    DATA     BYTE      SPCTL
      000000F8H   SFRSYM    DATA     BYTE      P7
      000000A8H.7 SFRSYM    DATA     BIT       EA
      000000E8H   SFRSYM    DATA     BYTE      P6
      000000C8H   SFRSYM    DATA     BYTE      P5
      000000C0H   SFRSYM    DATA     BYTE      P4
      000000C9H   SFRSYM    DATA     BYTE      P5M1
      000000B0H   SFRSYM    DATA     BYTE      P3
      000000B3H   SFRSYM    DATA     BYTE      P4M1
      000000CAH   SFRSYM    DATA     BYTE      P5M0
      000000A0H   SFRSYM    DATA     BYTE      P2
      000000B1H   SFRSYM    DATA     BYTE      P3M1
      000000B4H   SFRSYM    DATA     BYTE      P4M0
      00000090H   SFRSYM    DATA     BYTE      P1
      00000095H   SFRSYM    DATA     BYTE      P2M1
      000000B2H   SFRSYM    DATA     BYTE      P3M0
      00000080H   SFRSYM    DATA     BYTE      P0
      00000091H   SFRSYM    DATA     BYTE      P1M1
      00000096H   SFRSYM    DATA     BYTE      P2M0
      00000092H   SFRSYM    DATA     BYTE      P1M0
      00000093H   SFRSYM    DATA     BYTE      P0M1

      00FF6F57H   BLOCK     CODE     ---       LVL=0
      00001110H   SYMBOL    EDATA    DWORD     clock
L251 LINKER/LOCATER V4.66.93.0                                                        07/15/2024  23:31:17  PAGE 35


      00FF6F5BH   BLOCK     CODE     NEAR LAB  LVL=1
      00001114H   SYMBOL    EDATA    DWORD     temp_sys_clk
      ---         BLOCKEND  ---      ---       LVL=1
      00FF6F57H   LINE      CODE     ---       #35
      00FF6F5BH   LINE      CODE     ---       #36
      00FF6F5BH   LINE      CODE     ---       #37
      00FF6F61H   LINE      CODE     ---       #40
      00FF7042H   LINE      CODE     ---       #42
      00FF7042H   LINE      CODE     ---       #44
      00FF704FH   LINE      CODE     ---       #45
      00FF705CH   LINE      CODE     ---       #46
      00FF7069H   LINE      CODE     ---       #47
      00FF706DH   LINE      CODE     ---       #48
      00FF7070H   LINE      CODE     ---       #49
      00FF7071H   LINE      CODE     ---       #50
      00FF7072H   LINE      CODE     ---       #51
      00FF7073H   LINE      CODE     ---       #52
      00FF7074H   LINE      CODE     ---       #53
      00FF7081H   LINE      CODE     ---       #54
      00FF7089H   LINE      CODE     ---       #55
      00FF708CH   LINE      CODE     ---       #57
      00FF708CH   LINE      CODE     ---       #59
      00FF7099H   LINE      CODE     ---       #60
      00FF70A6H   LINE      CODE     ---       #61
      00FF70B3H   LINE      CODE     ---       #62
      00FF70B7H   LINE      CODE     ---       #63
      00FF70BAH   LINE      CODE     ---       #64
      00FF70BBH   LINE      CODE     ---       #65
      00FF70BCH   LINE      CODE     ---       #66
      00FF70BDH   LINE      CODE     ---       #67
      00FF70BEH   LINE      CODE     ---       #68
      00FF70CBH   LINE      CODE     ---       #69
      00FF70D3H   LINE      CODE     ---       #70
      00FF70D6H   LINE      CODE     ---       #72
      00FF70D6H   LINE      CODE     ---       #74
      00FF70E3H   LINE      CODE     ---       #75
      00FF70F0H   LINE      CODE     ---       #76
      00FF70FDH   LINE      CODE     ---       #77
      00FF7101H   LINE      CODE     ---       #78
      00FF7104H   LINE      CODE     ---       #79
      00FF7105H   LINE      CODE     ---       #80
      00FF7106H   LINE      CODE     ---       #81
      00FF7107H   LINE      CODE     ---       #82
      00FF7108H   LINE      CODE     ---       #83
      00FF7115H   LINE      CODE     ---       #84
      00FF711DH   LINE      CODE     ---       #85
      00FF7120H   LINE      CODE     ---       #87
      00FF7120H   LINE      CODE     ---       #89
      00FF712DH   LINE      CODE     ---       #90
      00FF713AH   LINE      CODE     ---       #91
      00FF7147H   LINE      CODE     ---       #92
      00FF714BH   LINE      CODE     ---       #93
      00FF714CH   LINE      CODE     ---       #94
      00FF714DH   LINE      CODE     ---       #95
      00FF714EH   LINE      CODE     ---       #96
      00FF714FH   LINE      CODE     ---       #97
      00FF7152H   LINE      CODE     ---       #98
      00FF715FH   LINE      CODE     ---       #99
      00FF7167H   LINE      CODE     ---       #100
      00FF716AH   LINE      CODE     ---       #102
      00FF716AH   LINE      CODE     ---       #104
      00FF7177H   LINE      CODE     ---       #105
      00FF7184H   LINE      CODE     ---       #106
      00FF7191H   LINE      CODE     ---       #107
      00FF7195H   LINE      CODE     ---       #108
L251 LINKER/LOCATER V4.66.93.0                                                        07/15/2024  23:31:17  PAGE 36


      00FF7198H   LINE      CODE     ---       #109
      00FF7199H   LINE      CODE     ---       #110
      00FF719AH   LINE      CODE     ---       #111
      00FF719BH   LINE      CODE     ---       #112
      00FF719CH   LINE      CODE     ---       #113
      00FF71A9H   LINE      CODE     ---       #114
      00FF71B1H   LINE      CODE     ---       #115
      00FF71B4H   LINE      CODE     ---       #117
      00FF71B4H   LINE      CODE     ---       #119
      00FF71C1H   LINE      CODE     ---       #120
      00FF71CEH   LINE      CODE     ---       #121
      00FF71DBH   LINE      CODE     ---       #122
      00FF71DFH   LINE      CODE     ---       #123
      00FF71E2H   LINE      CODE     ---       #124
      00FF71E3H   LINE      CODE     ---       #125
      00FF71E4H   LINE      CODE     ---       #126
      00FF71E5H   LINE      CODE     ---       #127
      00FF71E6H   LINE      CODE     ---       #128
      00FF71F3H   LINE      CODE     ---       #129
      00FF71FBH   LINE      CODE     ---       #130
      00FF71FEH   LINE      CODE     ---       #132
      00FF71FEH   LINE      CODE     ---       #134
      00FF720BH   LINE      CODE     ---       #135
      00FF7218H   LINE      CODE     ---       #136
      00FF7225H   LINE      CODE     ---       #137
      00FF7229H   LINE      CODE     ---       #138
      00FF722CH   LINE      CODE     ---       #139
      00FF722DH   LINE      CODE     ---       #140
      00FF722EH   LINE      CODE     ---       #141
      00FF722FH   LINE      CODE     ---       #142
      00FF7230H   LINE      CODE     ---       #143
      00FF723DH   LINE      CODE     ---       #144
      00FF7245H   LINE      CODE     ---       #145
      00FF7248H   LINE      CODE     ---       #147
      00FF7248H   LINE      CODE     ---       #149
      00FF7255H   LINE      CODE     ---       #150
      00FF7262H   LINE      CODE     ---       #151
      00FF726FH   LINE      CODE     ---       #152
      00FF7273H   LINE      CODE     ---       #153
      00FF7276H   LINE      CODE     ---       #154
      00FF7277H   LINE      CODE     ---       #155
      00FF7278H   LINE      CODE     ---       #156
      00FF7279H   LINE      CODE     ---       #157
      00FF727AH   LINE      CODE     ---       #158
      00FF7287H   LINE      CODE     ---       #159
      00FF728FH   LINE      CODE     ---       #160
      00FF7292H   LINE      CODE     ---       #162
      00FF7292H   LINE      CODE     ---       #164
      00FF729FH   LINE      CODE     ---       #165
      00FF72ACH   LINE      CODE     ---       #166
      00FF72B9H   LINE      CODE     ---       #167
      00FF72BDH   LINE      CODE     ---       #168
      00FF72C0H   LINE      CODE     ---       #169
      00FF72C1H   LINE      CODE     ---       #170
      00FF72C2H   LINE      CODE     ---       #171
      00FF72C3H   LINE      CODE     ---       #172
      00FF72C4H   LINE      CODE     ---       #173
      00FF72D1H   LINE      CODE     ---       #174
      00FF72D9H   LINE      CODE     ---       #175
      00FF72DCH   LINE      CODE     ---       #177
      00FF72DCH   LINE      CODE     ---       #179
      00FF72E9H   LINE      CODE     ---       #180
      00FF72F6H   LINE      CODE     ---       #181
      00FF7303H   LINE      CODE     ---       #182
      00FF7307H   LINE      CODE     ---       #183
L251 LINKER/LOCATER V4.66.93.0                                                        07/15/2024  23:31:17  PAGE 37


      00FF730AH   LINE      CODE     ---       #184
      00FF730BH   LINE      CODE     ---       #185
      00FF730CH   LINE      CODE     ---       #186
      00FF730DH   LINE      CODE     ---       #187
      00FF730EH   LINE      CODE     ---       #188
      00FF731BH   LINE      CODE     ---       #189
      00FF7323H   LINE      CODE     ---       #190
      00FF7326H   LINE      CODE     ---       #192
      00FF7326H   LINE      CODE     ---       #194
      00FF7333H   LINE      CODE     ---       #195
      00FF7340H   LINE      CODE     ---       #196
      00FF734DH   LINE      CODE     ---       #197
      00FF7351H   LINE      CODE     ---       #198
      00FF7355H   LINE      CODE     ---       #199
      00FF7356H   LINE      CODE     ---       #200
      00FF7357H   LINE      CODE     ---       #201
      00FF7358H   LINE      CODE     ---       #202
      00FF7359H   LINE      CODE     ---       #203
      00FF7366H   LINE      CODE     ---       #204
      00FF736EH   LINE      CODE     ---       #205
      00FF7371H   LINE      CODE     ---       #207
      00FF7371H   LINE      CODE     ---       #209
      00FF737EH   LINE      CODE     ---       #210
      00FF738BH   LINE      CODE     ---       #211
      00FF7398H   LINE      CODE     ---       #212
      00FF739CH   LINE      CODE     ---       #213
      00FF73A0H   LINE      CODE     ---       #214
      00FF73A1H   LINE      CODE     ---       #215
      00FF73A2H   LINE      CODE     ---       #216
      00FF73A3H   LINE      CODE     ---       #217
      00FF73A4H   LINE      CODE     ---       #218
      00FF73B1H   LINE      CODE     ---       #219
      00FF73B9H   LINE      CODE     ---       #220
      00FF73BCH   LINE      CODE     ---       #222
      00FF73BCH   LINE      CODE     ---       #224
      00FF73C9H   LINE      CODE     ---       #225
      00FF73D6H   LINE      CODE     ---       #226
      00FF73E3H   LINE      CODE     ---       #227
      00FF73E7H   LINE      CODE     ---       #228
      00FF73EBH   LINE      CODE     ---       #229
      00FF73ECH   LINE      CODE     ---       #230
      00FF73EDH   LINE      CODE     ---       #231
      00FF73EEH   LINE      CODE     ---       #232
      00FF73EFH   LINE      CODE     ---       #233
      00FF73FCH   LINE      CODE     ---       #234
      00FF7404H   LINE      CODE     ---       #235
      00FF7407H   LINE      CODE     ---       #237
      00FF7407H   LINE      CODE     ---       #239
      00FF7414H   LINE      CODE     ---       #240
      00FF7421H   LINE      CODE     ---       #241
      00FF742EH   LINE      CODE     ---       #242
      00FF7432H   LINE      CODE     ---       #243
      00FF7436H   LINE      CODE     ---       #244
      00FF7437H   LINE      CODE     ---       #245
      00FF7438H   LINE      CODE     ---       #246
      00FF7439H   LINE      CODE     ---       #247
      00FF743AH   LINE      CODE     ---       #248
      00FF7447H   LINE      CODE     ---       #249
      00FF744FH   LINE      CODE     ---       #250
      00FF7452H   LINE      CODE     ---       #252
      00FF7452H   LINE      CODE     ---       #254
      00FF745FH   LINE      CODE     ---       #255
      00FF746CH   LINE      CODE     ---       #256
      00FF7479H   LINE      CODE     ---       #257
      00FF747DH   LINE      CODE     ---       #258
L251 LINKER/LOCATER V4.66.93.0                                                        07/15/2024  23:31:17  PAGE 38


      00FF7481H   LINE      CODE     ---       #259
      00FF7482H   LINE      CODE     ---       #260
      00FF7483H   LINE      CODE     ---       #261
      00FF7484H   LINE      CODE     ---       #262
      00FF7485H   LINE      CODE     ---       #263
      00FF7492H   LINE      CODE     ---       #264
      00FF749AH   LINE      CODE     ---       #265
      00FF749DH   LINE      CODE     ---       #267
      00FF749DH   LINE      CODE     ---       #269
      00FF74AAH   LINE      CODE     ---       #270
      00FF74B7H   LINE      CODE     ---       #271
      00FF74C4H   LINE      CODE     ---       #272
      00FF74C8H   LINE      CODE     ---       #273
      00FF74CCH   LINE      CODE     ---       #274
      00FF74CDH   LINE      CODE     ---       #275
      00FF74CEH   LINE      CODE     ---       #276
      00FF74CFH   LINE      CODE     ---       #277
      00FF74D0H   LINE      CODE     ---       #278
      00FF74DDH   LINE      CODE     ---       #279
      00FF74E5H   LINE      CODE     ---       #280
      00FF74E8H   LINE      CODE     ---       #282
      00FF74E8H   LINE      CODE     ---       #284
      00FF74F5H   LINE      CODE     ---       #285
      00FF7502H   LINE      CODE     ---       #286
      00FF750FH   LINE      CODE     ---       #287
      00FF7513H   LINE      CODE     ---       #288
      00FF7517H   LINE      CODE     ---       #289
      00FF7518H   LINE      CODE     ---       #290
      00FF7519H   LINE      CODE     ---       #291
      00FF751AH   LINE      CODE     ---       #292
      00FF751BH   LINE      CODE     ---       #293
      00FF7528H   LINE      CODE     ---       #294
      00FF7530H   LINE      CODE     ---       #295
      00FF7532H   LINE      CODE     ---       #307
      00FF7532H   LINE      CODE     ---       #309
      00FF753FH   LINE      CODE     ---       #310
      00FF754CH   LINE      CODE     ---       #311
      00FF7559H   LINE      CODE     ---       #312
      00FF755DH   LINE      CODE     ---       #313
      00FF7561H   LINE      CODE     ---       #314
      00FF7562H   LINE      CODE     ---       #315
      00FF7563H   LINE      CODE     ---       #316
      00FF7564H   LINE      CODE     ---       #317
      00FF7565H   LINE      CODE     ---       #318
      00FF7572H   LINE      CODE     ---       #319
      00FF757EH   LINE      CODE     ---       #320
      00FF757EH   LINE      CODE     ---       #321
      00FF757EH   LINE      CODE     ---       #323
      00FF7582H   LINE      CODE     ---       #324
      ---         BLOCKEND  ---      ---       LVL=0

      00FFA479H   BLOCK     CODE     ---       LVL=0
      00001417H   SYMBOL    EDATA    CHAR      c
      00FFA479H   LINE      CODE     ---       #333
      00FFA47DH   LINE      CODE     ---       #335
      00FFA486H   LINE      CODE     ---       #337
      00FFA48AH   LINE      CODE     ---       #338
      ---         BLOCKEND  ---      ---       LVL=0

      00FF000EH   BLOCK     CODE     ---       LVL=0
      00FF000EH   LINE      CODE     ---       #341
      00FF000EH   LINE      CODE     ---       #343
      00FF0011H   LINE      CODE     ---       #344
      ---         BLOCKEND  ---      ---       LVL=0

L251 LINKER/LOCATER V4.66.93.0                                                        07/15/2024  23:31:17  PAGE 39


      00FF0006H   BLOCK     CODE     ---       LVL=0
      00FF0006H   LINE      CODE     ---       #347
      00FF0006H   LINE      CODE     ---       #349
      00FF0009H   LINE      CODE     ---       #350
      ---         BLOCKEND  ---      ---       LVL=0

      00FFA49DH   BLOCK     CODE     ---       LVL=0
      00FFA49DH   LINE      CODE     ---       #385
      00FFA49DH   LINE      CODE     ---       #387
      00FFA49EH   LINE      CODE     ---       #388
      00FFA49FH   LINE      CODE     ---       #389
      00FFA4A3H   LINE      CODE     ---       #391
      00FFA4A7H   LINE      CODE     ---       #393
      00FFA4ABH   LINE      CODE     ---       #395
      00FFA4ACH   LINE      CODE     ---       #396
      00FFA4ADH   LINE      CODE     ---       #397
      ---         BLOCKEND  ---      ---       LVL=0

      00FFA451H   BLOCK     CODE     ---       LVL=0
      00001301H   SYMBOL    EDATA    DWORD     clock
      00FFA451H   LINE      CODE     ---       #399
      00FFA455H   LINE      CODE     ---       #401
      00FFA459H   LINE      CODE     ---       #409
      00FFA464H   LINE      CODE     ---       #413
      ---         BLOCKEND  ---      ---       LVL=0

      00FF98EDH   BLOCK     CODE     ---       LVL=0
      00FF98EDH   LINE      CODE     ---       #416
      00FF98EDH   LINE      CODE     ---       #419
      00FF98F0H   LINE      CODE     ---       #422
      00FF98F3H   LINE      CODE     ---       #423
      00FF98F6H   LINE      CODE     ---       #424
      00FF98F9H   LINE      CODE     ---       #425
      00FF98FCH   LINE      CODE     ---       #426
      00FF98FFH   LINE      CODE     ---       #427
      00FF9902H   LINE      CODE     ---       #428
      00FF9905H   LINE      CODE     ---       #429
      00FF9908H   LINE      CODE     ---       #430
      00FF990BH   LINE      CODE     ---       #431
      00FF990EH   LINE      CODE     ---       #432
      00FF9911H   LINE      CODE     ---       #433
      00FF9914H   LINE      CODE     ---       #452
      00FF9917H   LINE      CODE     ---       #454
      00FF9927H   LINE      CODE     ---       #459
      00FF992AH   LINE      CODE     ---       #460
      00FF992AH   LINE      CODE     ---       #464
      00FF992DH   LINE      CODE     ---       #465
      00FF9930H   LINE      CODE     ---       #466
      00FF9933H   LINE      CODE     ---       #467
      00FF9936H   LINE      CODE     ---       #468
      00FF9939H   LINE      CODE     ---       #469
      00FF993CH   LINE      CODE     ---       #470
      00FF993FH   LINE      CODE     ---       #471
      00FF9942H   LINE      CODE     ---       #472
      00FF9945H   LINE      CODE     ---       #474
      00FF9960H   LINE      CODE     ---       #475
      00FF9963H   LINE      CODE     ---       #476
      ---         BLOCKEND  ---      ---       LVL=0

      ---         MODULE    ---      ---       common
      000013B5H   PUBLIC    EDATA    INT       wireless_type
      000000D0H   SFRSYM    DATA     BYTE      PSW
      0000009DH   SFRSYM    DATA     BYTE      IRCBAND
      00000097H   SFRSYM    DATA     BYTE      AUXR2
      000000EFH   SFRSYM    DATA     BYTE      AUXINTIF
L251 LINKER/LOCATER V4.66.93.0                                                        07/15/2024  23:31:17  PAGE 40


      000000FDH   SFRSYM    DATA     BYTE      S4CON
      000000ACH   SFRSYM    DATA     BYTE      S3CON
      0000009AH   SFRSYM    DATA     BYTE      S2CON
      000000B7H   SFRSYM    DATA     BYTE      IPH
      000000CDH   SFRSYM    DATA     BYTE      SPSTAT
      000000DDH   SFRSYM    DATA     BYTE      T4T3M
      000000C1H   SFRSYM    DATA     BYTE      WDT_CONTR
      000000DFH   SFRSYM    DATA     BYTE      IP3
      000000F4H   SFRSYM    DATA     BYTE      USBCON
      000000B5H   SFRSYM    DATA     BYTE      IP2
      000000FFH   SFRSYM    DATA     BYTE      RSTCFG
      000000C7H   SFRSYM    DATA     BYTE      IAP_CONTR
      000000F9H   SFRSYM    DATA     BYTE      LINICR
      0000008EH   SFRSYM    DATA     BYTE      AUXR
      000000AFH   SFRSYM    DATA     BYTE      IE2
      00000088H   SFRSYM    DATA     BYTE      TCON
      00000089H   SFRSYM    DATA     BYTE      TMOD
      00000098H   SFRSYM    DATA     BYTE      SCON
      000000F1H   SFRSYM    DATA     BYTE      CANICR
      00000087H   SFRSYM    DATA     BYTE      PCON
      000000BCH   SFRSYM    DATA     BYTE      ADC_CONTR
      000000E7H   SFRSYM    DATA     BYTE      CMPCR2
      000000E6H   SFRSYM    DATA     BYTE      CMPCR1
      000000DEH   SFRSYM    DATA     BYTE      ADCCFG
      000000B8H   SFRSYM    DATA     BYTE      IP
      0000008FH   SFRSYM    DATA     BYTE      INTCLKO
      000000EEH   SFRSYM    DATA     BYTE      IP3H
      000000B6H   SFRSYM    DATA     BYTE      IP2H
      000000A8H   SFRSYM    DATA     BYTE      IE
      000000BBH   SFRSYM    DATA     BYTE      P_SW3
      000000BAH   SFRSYM    DATA     BYTE      P_SW2
      000000A2H   SFRSYM    DATA     BYTE      P_SW1
      000000CEH   SFRSYM    DATA     BYTE      SPCTL
      000000F8H   SFRSYM    DATA     BYTE      P7
      000000E8H   SFRSYM    DATA     BYTE      P6
      000000C8H   SFRSYM    DATA     BYTE      P5
      000000C0H   SFRSYM    DATA     BYTE      P4
      000000B0H   SFRSYM    DATA     BYTE      P3
      000000A0H   SFRSYM    DATA     BYTE      P2
      00000090H   SFRSYM    DATA     BYTE      P1
      00000080H   SFRSYM    DATA     BYTE      P0

      ---         MODULE    ---      ---       STC32F_FPMU
      00FFA4C3H   PUBLIC    CODE     ---       ?C?CASTF
      00FFA4C9H   PUBLIC    CODE     ---       ?C?FCASTI
      00FF008EH   PUBLIC    CODE     ---       ?C?FCASTL
      00FF0016H   PUBLIC    CODE     ---       ?C?FPADD
      00FF0046H   PUBLIC    CODE     ---       ?C?FPCMP3
      00FF005EH   PUBLIC    CODE     ---       ?C?FPDIV
      00FF0056H   PUBLIC    CODE     ---       ?C?FPMUL
      00FFA4AEH   PUBLIC    CODE     ---       ?C?FPNEG
      00FF001EH   PUBLIC    CODE     ---       ?C?FPSUB
      00FFA4B5H   PUBLIC    CODE     ---       FABS?_
      00FF0086H   PUBLIC    CODE     ---       SQRT?_
      000000E0H   SFRSYM    DATA     BYTE      ACC
      000000EDH   SFRSYM    DATA     BYTE      DMAIR
      00000083H   SFRSYM    DATA     BYTE      DPH
      00000082H   SFRSYM    DATA     BYTE      DPL
      0000001CH   SYMBOL    NUMBER   ---       DMA_FPADD
      00000030H   SYMBOL    NUMBER   ---       DMA_FPATAN
      00000027H   SYMBOL    NUMBER   ---       DMA_FPCLD
      00000032H   SYMBOL    NUMBER   ---       DMA_FPCLEX
      00000021H   SYMBOL    NUMBER   ---       DMA_FPCMP
      0000002EH   SYMBOL    NUMBER   ---       DMA_FPCOS
      00000035H   SYMBOL    NUMBER   ---       DMA_FPCRR
L251 LINKER/LOCATER V4.66.93.0                                                        07/15/2024  23:31:17  PAGE 41


      00000036H   SYMBOL    NUMBER   ---       DMA_FPCRW
      00000023H   SYMBOL    NUMBER   ---       DMA_FPCST
      0000001FH   SYMBOL    NUMBER   ---       DMA_FPDIV
      00000028H   SYMBOL    NUMBER   ---       DMA_FPILD
      00000031H   SYMBOL    NUMBER   ---       DMA_FPINIT
      00000024H   SYMBOL    NUMBER   ---       DMA_FPIST
      00000029H   SYMBOL    NUMBER   ---       DMA_FPLLD
      00000025H   SYMBOL    NUMBER   ---       DMA_FPLST
      0000001EH   SYMBOL    NUMBER   ---       DMA_FPMUL
      0000002DH   SYMBOL    NUMBER   ---       DMA_FPSIN
      00000020H   SYMBOL    NUMBER   ---       DMA_FPSQRT
      00000033H   SYMBOL    NUMBER   ---       DMA_FPSRR
      00000034H   SYMBOL    NUMBER   ---       DMA_FPSRW
      0000001DH   SYMBOL    NUMBER   ---       DMA_FPSUB
      0000002FH   SYMBOL    NUMBER   ---       DMA_FPTAN
      00000022H   SYMBOL    NUMBER   ---       DMA_FPXAM
      00000001H   SYMBOL    NUMBER   ---       FP_CONV_EN
      00000001H   SYMBOL    NUMBER   ---       FP_REGS_EN
      00000001H   SYMBOL    NUMBER   ---       FP_TRIG_EN

      00FF0016H   BLOCK     CODE     NEAR LAB  LVL=0
      00FF0016H   LINE      CODE     ---       #62
      00FF0019H   LINE      CODE     ---       #63
      ---         BLOCKEND  ---      ---       LVL=0

      00FF001EH   BLOCK     CODE     NEAR LAB  LVL=0
      00FF001EH   LINE      CODE     ---       #72
      00FF0021H   LINE      CODE     ---       #73
      ---         BLOCKEND  ---      ---       LVL=0

      00FF0056H   BLOCK     CODE     NEAR LAB  LVL=0
      00FF0056H   LINE      CODE     ---       #82
      00FF0059H   LINE      CODE     ---       #83
      ---         BLOCKEND  ---      ---       LVL=0

      00FF005EH   BLOCK     CODE     NEAR LAB  LVL=0
      00FF005EH   LINE      CODE     ---       #92
      00FF0061H   LINE      CODE     ---       #93
      ---         BLOCKEND  ---      ---       LVL=0

      00FF0086H   BLOCK     CODE     NEAR LAB  LVL=0
      00FF0086H   LINE      CODE     ---       #102
      00FF0089H   LINE      CODE     ---       #103
      ---         BLOCKEND  ---      ---       LVL=0

      00FF0046H   BLOCK     CODE     NEAR LAB  LVL=0
      00FF0046H   LINE      CODE     ---       #113
      00FF0049H   LINE      CODE     ---       #114
      00FF004BH   LINE      CODE     ---       #115
      00FF004DH   LINE      CODE     ---       #116
      00FF004FH   LINE      CODE     ---       #117
      00FF0051H   LINE      CODE     ---       #118
      ---         BLOCKEND  ---      ---       LVL=0

      00FFA4AEH   BLOCK     CODE     NEAR LAB  LVL=0
      00FFA4AEH   LINE      CODE     ---       #138
      00FFA4B0H   LINE      CODE     ---       #139
      00FFA4B2H   LINE      CODE     ---       #140
      00FFA4B4H   LINE      CODE     ---       #141
      ---         BLOCKEND  ---      ---       LVL=0

      00FFA4B5H   BLOCK     CODE     NEAR LAB  LVL=0
      00FFA4B5H   LINE      CODE     ---       #150
      00FFA4B7H   LINE      CODE     ---       #151
      00FFA4B9H   LINE      CODE     ---       #152
L251 LINKER/LOCATER V4.66.93.0                                                        07/15/2024  23:31:17  PAGE 42


      00FFA4BBH   LINE      CODE     ---       #153
      ---         BLOCKEND  ---      ---       LVL=0

      00FFA4C3H   BLOCK     CODE     NEAR LAB  LVL=0
      00FFA4C3H   LINE      CODE     ---       #213
      00FFA4C6H   LINE      CODE     ---       #214
      00FFA4C8H   LINE      CODE     ---       #215
      ---         BLOCKEND  ---      ---       LVL=0

      00FFA4C9H   BLOCK     CODE     NEAR LAB  LVL=0
      00FFA4C9H   LINE      CODE     ---       #235
      00FFA4CBH   LINE      CODE     ---       #236
      00FFA4CEH   LINE      CODE     ---       #237
      ---         BLOCKEND  ---      ---       LVL=0

      00FF008EH   BLOCK     CODE     NEAR LAB  LVL=0
      00FF008EH   LINE      CODE     ---       #246
      00FF0091H   LINE      CODE     ---       #247
      ---         BLOCKEND  ---      ---       LVL=0

      ---         MODULE    ---      ---       zf_adc
      00FF9CEFH   PUBLIC    CODE     ---       adc_once
      00FF9529H   PUBLIC    CODE     ---       adc_init
      00000094H   SFRSYM    DATA     BYTE      P0M0
      000000D0H   SFRSYM    DATA     BYTE      PSW
      0000009DH   SFRSYM    DATA     BYTE      IRCBAND
      00000097H   SFRSYM    DATA     BYTE      AUXR2
      000000EFH   SFRSYM    DATA     BYTE      AUXINTIF
      000000FDH   SFRSYM    DATA     BYTE      S4CON
      000000ACH   SFRSYM    DATA     BYTE      S3CON
      0000009AH   SFRSYM    DATA     BYTE      S2CON
      000000B7H   SFRSYM    DATA     BYTE      IPH
      000000CDH   SFRSYM    DATA     BYTE      SPSTAT
      000000BEH   SFRSYM    DATA     BYTE      ADC_RESL
      000000DDH   SFRSYM    DATA     BYTE      T4T3M
      000000C1H   SFRSYM    DATA     BYTE      WDT_CONTR
      000000DFH   SFRSYM    DATA     BYTE      IP3
      000000F4H   SFRSYM    DATA     BYTE      USBCON
      000000B5H   SFRSYM    DATA     BYTE      IP2
      000000FFH   SFRSYM    DATA     BYTE      RSTCFG
      000000C7H   SFRSYM    DATA     BYTE      IAP_CONTR
      000000F9H   SFRSYM    DATA     BYTE      LINICR
      0000008EH   SFRSYM    DATA     BYTE      AUXR
      000000AFH   SFRSYM    DATA     BYTE      IE2
      00000088H   SFRSYM    DATA     BYTE      TCON
      00000089H   SFRSYM    DATA     BYTE      TMOD
      00000098H   SFRSYM    DATA     BYTE      SCON
      000000F1H   SFRSYM    DATA     BYTE      CANICR
      00000087H   SFRSYM    DATA     BYTE      PCON
      000000BCH   SFRSYM    DATA     BYTE      ADC_CONTR
      000000E7H   SFRSYM    DATA     BYTE      CMPCR2
      000000E6H   SFRSYM    DATA     BYTE      CMPCR1
      000000DEH   SFRSYM    DATA     BYTE      ADCCFG
      000000B8H   SFRSYM    DATA     BYTE      IP
      0000008FH   SFRSYM    DATA     BYTE      INTCLKO
      000000EEH   SFRSYM    DATA     BYTE      IP3H
      000000B6H   SFRSYM    DATA     BYTE      IP2H
      000000BDH   SFRSYM    DATA     BYTE      ADC_RES
      000000A8H   SFRSYM    DATA     BYTE      IE
      000000BBH   SFRSYM    DATA     BYTE      P_SW3
      000000BAH   SFRSYM    DATA     BYTE      P_SW2
      000000A2H   SFRSYM    DATA     BYTE      P_SW1
      000000CEH   SFRSYM    DATA     BYTE      SPCTL
      000000F8H   SFRSYM    DATA     BYTE      P7
      000000E8H   SFRSYM    DATA     BYTE      P6
L251 LINKER/LOCATER V4.66.93.0                                                        07/15/2024  23:31:17  PAGE 43


      000000C8H   SFRSYM    DATA     BYTE      P5
      000000C0H   SFRSYM    DATA     BYTE      P4
      000000B0H   SFRSYM    DATA     BYTE      P3
      000000A0H   SFRSYM    DATA     BYTE      P2
      00000090H   SFRSYM    DATA     BYTE      P1
      00000080H   SFRSYM    DATA     BYTE      P0
      00000091H   SFRSYM    DATA     BYTE      P1M1
      00000092H   SFRSYM    DATA     BYTE      P1M0
      00000093H   SFRSYM    DATA     BYTE      P0M1

      00FF9529H   BLOCK     CODE     ---       LVL=0
      00001305H   SYMBOL    EDATA    INT       adcn
      00001307H   SYMBOL    EDATA    INT       speed
      00FF9529H   LINE      CODE     ---       #32
      00FF9531H   LINE      CODE     ---       #34
      00FF9534H   LINE      CODE     ---       #36
      00FF9537H   LINE      CODE     ---       #37
      00FF953FH   LINE      CODE     ---       #39
      00FF9551H   LINE      CODE     ---       #42
      00FF956CH   LINE      CODE     ---       #43
      00FF9585H   LINE      CODE     ---       #44
      00FF9587H   LINE      CODE     ---       #45
      00FF9597H   LINE      CODE     ---       #48
      00FF95B2H   LINE      CODE     ---       #49
      00FF95CBH   LINE      CODE     ---       #50
      00FF95CBH   LINE      CODE     ---       #52
      00FF95DAH   LINE      CODE     ---       #54
      00FF95DDH   LINE      CODE     ---       #55
      ---         BLOCKEND  ---      ---       LVL=0

      00FF9CEFH   BLOCK     CODE     ---       LVL=0
      00001217H   SYMBOL    EDATA    INT       adcn
      00001219H   SYMBOL    EDATA    INT       resolution
      00FF9CF7H   BLOCK     CODE     NEAR LAB  LVL=1
      0000121BH   SYMBOL    EDATA    WORD      adc_value
      ---         BLOCKEND  ---      ---       LVL=1
      00FF9CEFH   LINE      CODE     ---       #66
      00FF9CF7H   LINE      CODE     ---       #67
      00FF9CF7H   LINE      CODE     ---       #70
      00FF9CFAH   LINE      CODE     ---       #71
      00FF9D02H   LINE      CODE     ---       #73
      00FF9D05H   LINE      CODE     ---       #74
      00FF9D0AH   LINE      CODE     ---       #75
      00FF9D0DH   LINE      CODE     ---       #77
      00FF9D15H   LINE      CODE     ---       #78
      00FF9D1DH   LINE      CODE     ---       #79
      00FF9D2BH   LINE      CODE     ---       #81
      00FF9D2EH   LINE      CODE     ---       #82
      00FF9D31H   LINE      CODE     ---       #84
      00FF9D44H   LINE      CODE     ---       #87
      00FF9D44H   LINE      CODE     ---       #88
      ---         BLOCKEND  ---      ---       LVL=0

      ---         MODULE    ---      ---       zf_delay
      00FFA314H   PUBLIC    CODE     ---       delay_init
      00FFA151H   PUBLIC    CODE     ---       delay_ms
      00FFA186H   PUBLIC    CODE     ---       delay_us
      00001309H   PUBLIC    EDATA    WORD      zf_delay_ms
      0000130BH   PUBLIC    EDATA    WORD      zf_delay_us
      000000D0H   SFRSYM    DATA     BYTE      PSW
      0000009DH   SFRSYM    DATA     BYTE      IRCBAND
      00000097H   SFRSYM    DATA     BYTE      AUXR2
      000000EFH   SFRSYM    DATA     BYTE      AUXINTIF
      000000FDH   SFRSYM    DATA     BYTE      S4CON
      000000ACH   SFRSYM    DATA     BYTE      S3CON
L251 LINKER/LOCATER V4.66.93.0                                                        07/15/2024  23:31:17  PAGE 44


      0000009AH   SFRSYM    DATA     BYTE      S2CON
      000000B7H   SFRSYM    DATA     BYTE      IPH
      000000CDH   SFRSYM    DATA     BYTE      SPSTAT
      000000DDH   SFRSYM    DATA     BYTE      T4T3M
      000000C1H   SFRSYM    DATA     BYTE      WDT_CONTR
      000000DFH   SFRSYM    DATA     BYTE      IP3
      000000F4H   SFRSYM    DATA     BYTE      USBCON
      000000B5H   SFRSYM    DATA     BYTE      IP2
      000000FFH   SFRSYM    DATA     BYTE      RSTCFG
      000000C7H   SFRSYM    DATA     BYTE      IAP_CONTR
      000000F9H   SFRSYM    DATA     BYTE      LINICR
      0000008EH   SFRSYM    DATA     BYTE      AUXR
      000000AFH   SFRSYM    DATA     BYTE      IE2
      00000088H   SFRSYM    DATA     BYTE      TCON
      00000089H   SFRSYM    DATA     BYTE      TMOD
      00000098H   SFRSYM    DATA     BYTE      SCON
      000000F1H   SFRSYM    DATA     BYTE      CANICR
      00000087H   SFRSYM    DATA     BYTE      PCON
      000000BCH   SFRSYM    DATA     BYTE      ADC_CONTR
      000000E7H   SFRSYM    DATA     BYTE      CMPCR2
      000000E6H   SFRSYM    DATA     BYTE      CMPCR1
      000000DEH   SFRSYM    DATA     BYTE      ADCCFG
      000000B8H   SFRSYM    DATA     BYTE      IP
      0000008FH   SFRSYM    DATA     BYTE      INTCLKO
      000000EEH   SFRSYM    DATA     BYTE      IP3H
      000000B6H   SFRSYM    DATA     BYTE      IP2H
      000000A8H   SFRSYM    DATA     BYTE      IE
      000000BBH   SFRSYM    DATA     BYTE      P_SW3
      000000BAH   SFRSYM    DATA     BYTE      P_SW2
      000000A2H   SFRSYM    DATA     BYTE      P_SW1
      000000CEH   SFRSYM    DATA     BYTE      SPCTL
      000000F8H   SFRSYM    DATA     BYTE      P7
      000000E8H   SFRSYM    DATA     BYTE      P6
      000000C8H   SFRSYM    DATA     BYTE      P5
      000000C0H   SFRSYM    DATA     BYTE      P4
      000000B0H   SFRSYM    DATA     BYTE      P3
      000000A0H   SFRSYM    DATA     BYTE      P2
      00000090H   SFRSYM    DATA     BYTE      P1
      00000080H   SFRSYM    DATA     BYTE      P0

      00FFA314H   BLOCK     CODE     ---       LVL=0
      00FFA314H   LINE      CODE     ---       #34
      00FFA314H   LINE      CODE     ---       #36
      00FFA323H   LINE      CODE     ---       #37
      00FFA336H   LINE      CODE     ---       #38
      ---         BLOCKEND  ---      ---       LVL=0

      00FFA151H   BLOCK     CODE     ---       LVL=0
      0000130DH   SYMBOL    EDATA    WORD      ms
      00FFA155H   BLOCK     CODE     NEAR LAB  LVL=1
      0000130FH   SYMBOL    EDATA    WORD      i
      ---         BLOCKEND  ---      ---       LVL=1
      00FFA151H   LINE      CODE     ---       #46
      00FFA155H   LINE      CODE     ---       #47
      00FFA155H   LINE      CODE     ---       #49
      00FFA155H   LINE      CODE     ---       #50
      00FFA15DH   LINE      CODE     ---       #51
      00FFA171H   LINE      CODE     ---       #52
      00FFA185H   LINE      CODE     ---       #53
      ---         BLOCKEND  ---      ---       LVL=0

      00FFA186H   BLOCK     CODE     ---       LVL=0
      0000121DH   SYMBOL    EDATA    DWORD     us
      00FFA18AH   BLOCK     CODE     NEAR LAB  LVL=1
      00001221H   SYMBOL    EDATA    WORD      i
L251 LINKER/LOCATER V4.66.93.0                                                        07/15/2024  23:31:17  PAGE 45


      ---         BLOCKEND  ---      ---       LVL=1
      00FFA186H   LINE      CODE     ---       #61
      00FFA18AH   LINE      CODE     ---       #62
      00FFA18AH   LINE      CODE     ---       #64
      00FFA18AH   LINE      CODE     ---       #65
      00FFA192H   LINE      CODE     ---       #66
      00FFA1A6H   LINE      CODE     ---       #67
      00FFA1B8H   LINE      CODE     ---       #68
      ---         BLOCKEND  ---      ---       LVL=0

      ---         MODULE    ---      ---       zf_eeprom
      00000F87H   PUBLIC    EDATA    BYTE      ?iap_read_bytes?BYTE
      00000F91H   PUBLIC    EDATA    BYTE      ?iap_write_bytes?BYTE
      000000D0H   SFRSYM    DATA     BYTE      PSW
      0000009DH   SFRSYM    DATA     BYTE      IRCBAND
      000000D0H.5 SFRSYM    DATA     BIT       F0
      00000097H   SFRSYM    DATA     BYTE      AUXR2
      000000C6H   SFRSYM    DATA     BYTE      IAP_TRIG
      000000EFH   SFRSYM    DATA     BYTE      AUXINTIF
      000000FDH   SFRSYM    DATA     BYTE      S4CON
      000000ACH   SFRSYM    DATA     BYTE      S3CON
      0000009AH   SFRSYM    DATA     BYTE      S2CON
      000000B7H   SFRSYM    DATA     BYTE      IPH
      000000CDH   SFRSYM    DATA     BYTE      SPSTAT
      000000DDH   SFRSYM    DATA     BYTE      T4T3M
      000000C1H   SFRSYM    DATA     BYTE      WDT_CONTR
      000000C2H   SFRSYM    DATA     BYTE      IAP_DATA
      000000DFH   SFRSYM    DATA     BYTE      IP3
      000000F4H   SFRSYM    DATA     BYTE      USBCON
      000000B5H   SFRSYM    DATA     BYTE      IP2
      000000FFH   SFRSYM    DATA     BYTE      RSTCFG
      000000C7H   SFRSYM    DATA     BYTE      IAP_CONTR
      000000F9H   SFRSYM    DATA     BYTE      LINICR
      0000008EH   SFRSYM    DATA     BYTE      AUXR
      000000AFH   SFRSYM    DATA     BYTE      IE2
      00000088H   SFRSYM    DATA     BYTE      TCON
      00000089H   SFRSYM    DATA     BYTE      TMOD
      00000098H   SFRSYM    DATA     BYTE      SCON
      000000F5H   SFRSYM    DATA     BYTE      IAP_TPS
      000000F1H   SFRSYM    DATA     BYTE      CANICR
      00000087H   SFRSYM    DATA     BYTE      PCON
      000000BCH   SFRSYM    DATA     BYTE      ADC_CONTR
      000000E7H   SFRSYM    DATA     BYTE      CMPCR2
      000000E6H   SFRSYM    DATA     BYTE      CMPCR1
      000000C4H   SFRSYM    DATA     BYTE      IAP_ADDRL
      000000C3H   SFRSYM    DATA     BYTE      IAP_ADDRH
      000000F6H   SFRSYM    DATA     BYTE      IAP_ADDRE
      000000DEH   SFRSYM    DATA     BYTE      ADCCFG
      000000B8H   SFRSYM    DATA     BYTE      IP
      0000008FH   SFRSYM    DATA     BYTE      INTCLKO
      000000EEH   SFRSYM    DATA     BYTE      IP3H
      000000B6H   SFRSYM    DATA     BYTE      IP2H
      000000C5H   SFRSYM    DATA     BYTE      IAP_CMD
      000000A8H   SFRSYM    DATA     BYTE      IE
      000000BBH   SFRSYM    DATA     BYTE      P_SW3
      000000BAH   SFRSYM    DATA     BYTE      P_SW2
      000000A2H   SFRSYM    DATA     BYTE      P_SW1
      000000CEH   SFRSYM    DATA     BYTE      SPCTL
      000000F8H   SFRSYM    DATA     BYTE      P7
      000000A8H.7 SFRSYM    DATA     BIT       EA
      000000E8H   SFRSYM    DATA     BYTE      P6
      000000C8H   SFRSYM    DATA     BYTE      P5
      000000C0H   SFRSYM    DATA     BYTE      P4
      000000B0H   SFRSYM    DATA     BYTE      P3
      000000A0H   SFRSYM    DATA     BYTE      P2
L251 LINKER/LOCATER V4.66.93.0                                                        07/15/2024  23:31:17  PAGE 46


      00000090H   SFRSYM    DATA     BYTE      P1
      00000080H   SFRSYM    DATA     BYTE      P0
      00001418H   SYMBOL    EDATA    BYTE      write_time
      00000F87H   SYMBOL    EDATA    DWORD     addr
      00000F8BH   SYMBOL    EDATA    ---       buf
      00000F8FH   SYMBOL    EDATA    WORD      len
      00000F91H   SYMBOL    EDATA    DWORD     addr
      00000F95H   SYMBOL    EDATA    ---       buf
      00000F99H   SYMBOL    EDATA    WORD      len
      00001311H   SYMBOL    EDATA    DWORD     addr

      ---         MODULE    ---      ---       zf_exti
      000000D0H   SFRSYM    DATA     BYTE      PSW
      0000009DH   SFRSYM    DATA     BYTE      IRCBAND
      00000097H   SFRSYM    DATA     BYTE      AUXR2
      000000EFH   SFRSYM    DATA     BYTE      AUXINTIF
      000000FDH   SFRSYM    DATA     BYTE      S4CON
      000000ACH   SFRSYM    DATA     BYTE      S3CON
      0000009AH   SFRSYM    DATA     BYTE      S2CON
      000000B7H   SFRSYM    DATA     BYTE      IPH
      000000CDH   SFRSYM    DATA     BYTE      SPSTAT
      000000DDH   SFRSYM    DATA     BYTE      T4T3M
      000000C1H   SFRSYM    DATA     BYTE      WDT_CONTR
      00000088H.2 SFRSYM    DATA     BIT       IT1
      000000A8H.2 SFRSYM    DATA     BIT       EX1
      00000088H.0 SFRSYM    DATA     BIT       IT0
      000000A8H.0 SFRSYM    DATA     BIT       EX0
      000000DFH   SFRSYM    DATA     BYTE      IP3
      000000F4H   SFRSYM    DATA     BYTE      USBCON
      000000B5H   SFRSYM    DATA     BYTE      IP2
      000000FFH   SFRSYM    DATA     BYTE      RSTCFG
      000000C7H   SFRSYM    DATA     BYTE      IAP_CONTR
      000000F9H   SFRSYM    DATA     BYTE      LINICR
      0000008EH   SFRSYM    DATA     BYTE      AUXR
      000000AFH   SFRSYM    DATA     BYTE      IE2
      00000088H   SFRSYM    DATA     BYTE      TCON
      00000089H   SFRSYM    DATA     BYTE      TMOD
      00000098H   SFRSYM    DATA     BYTE      SCON
      000000F1H   SFRSYM    DATA     BYTE      CANICR
      00000087H   SFRSYM    DATA     BYTE      PCON
      000000BCH   SFRSYM    DATA     BYTE      ADC_CONTR
      000000E7H   SFRSYM    DATA     BYTE      CMPCR2
      000000E6H   SFRSYM    DATA     BYTE      CMPCR1
      000000DEH   SFRSYM    DATA     BYTE      ADCCFG
      000000B8H   SFRSYM    DATA     BYTE      IP
      0000008FH   SFRSYM    DATA     BYTE      INTCLKO
      000000EEH   SFRSYM    DATA     BYTE      IP3H
      000000B6H   SFRSYM    DATA     BYTE      IP2H
      000000A8H   SFRSYM    DATA     BYTE      IE
      000000BBH   SFRSYM    DATA     BYTE      P_SW3
      000000BAH   SFRSYM    DATA     BYTE      P_SW2
      000000A2H   SFRSYM    DATA     BYTE      P_SW1
      000000CEH   SFRSYM    DATA     BYTE      SPCTL
      000000F8H   SFRSYM    DATA     BYTE      P7
      000000E8H   SFRSYM    DATA     BYTE      P6
      000000C8H   SFRSYM    DATA     BYTE      P5
      000000C0H   SFRSYM    DATA     BYTE      P4
      000000B0H   SFRSYM    DATA     BYTE      P3
      000000A0H   SFRSYM    DATA     BYTE      P2
      00000090H   SFRSYM    DATA     BYTE      P1
      00000080H   SFRSYM    DATA     BYTE      P0
      00001315H   SYMBOL    EDATA    INT       int_n
      00001317H   SYMBOL    EDATA    INT       mode

      ---         MODULE    ---      ---       zf_gpio
L251 LINKER/LOCATER V4.66.93.0                                                        07/15/2024  23:31:17  PAGE 47


      00FF58FBH   PUBLIC    CODE     ---       gpio_mode
      00000094H   SFRSYM    DATA     BYTE      P0M0
      000000D0H   SFRSYM    DATA     BYTE      PSW
      0000009DH   SFRSYM    DATA     BYTE      IRCBAND
      00000097H   SFRSYM    DATA     BYTE      AUXR2
      000000EFH   SFRSYM    DATA     BYTE      AUXINTIF
      000000FDH   SFRSYM    DATA     BYTE      S4CON
      000000ACH   SFRSYM    DATA     BYTE      S3CON
      0000009AH   SFRSYM    DATA     BYTE      S2CON
      000000B7H   SFRSYM    DATA     BYTE      IPH
      000000CDH   SFRSYM    DATA     BYTE      SPSTAT
      000000DDH   SFRSYM    DATA     BYTE      T4T3M
      000000C1H   SFRSYM    DATA     BYTE      WDT_CONTR
      000000DFH   SFRSYM    DATA     BYTE      IP3
      000000F4H   SFRSYM    DATA     BYTE      USBCON
      000000B5H   SFRSYM    DATA     BYTE      IP2
      000000FFH   SFRSYM    DATA     BYTE      RSTCFG
      000000C7H   SFRSYM    DATA     BYTE      IAP_CONTR
      000000F9H   SFRSYM    DATA     BYTE      LINICR
      0000008EH   SFRSYM    DATA     BYTE      AUXR
      000000AFH   SFRSYM    DATA     BYTE      IE2
      00000088H   SFRSYM    DATA     BYTE      TCON
      00000089H   SFRSYM    DATA     BYTE      TMOD
      00000098H   SFRSYM    DATA     BYTE      SCON
      000000F1H   SFRSYM    DATA     BYTE      CANICR
      00000087H   SFRSYM    DATA     BYTE      PCON
      000000BCH   SFRSYM    DATA     BYTE      ADC_CONTR
      000000E7H   SFRSYM    DATA     BYTE      CMPCR2
      000000E6H   SFRSYM    DATA     BYTE      CMPCR1
      000000DEH   SFRSYM    DATA     BYTE      ADCCFG
      000000B8H   SFRSYM    DATA     BYTE      IP
      0000008FH   SFRSYM    DATA     BYTE      INTCLKO
      000000EEH   SFRSYM    DATA     BYTE      IP3H
      000000B6H   SFRSYM    DATA     BYTE      IP2H
      000000A8H   SFRSYM    DATA     BYTE      IE
      000000BBH   SFRSYM    DATA     BYTE      P_SW3
      000000BAH   SFRSYM    DATA     BYTE      P_SW2
      000000A2H   SFRSYM    DATA     BYTE      P_SW1
      000000CEH   SFRSYM    DATA     BYTE      SPCTL
      000000F8H   SFRSYM    DATA     BYTE      P7
      000000E1H   SFRSYM    DATA     BYTE      P7M1
      000000E8H   SFRSYM    DATA     BYTE      P6
      000000C8H   SFRSYM    DATA     BYTE      P5
      000000CBH   SFRSYM    DATA     BYTE      P6M1
      000000E2H   SFRSYM    DATA     BYTE      P7M0
      000000C0H   SFRSYM    DATA     BYTE      P4
      000000C9H   SFRSYM    DATA     BYTE      P5M1
      000000CCH   SFRSYM    DATA     BYTE      P6M0
      000000B0H   SFRSYM    DATA     BYTE      P3
      000000B3H   SFRSYM    DATA     BYTE      P4M1
      000000CAH   SFRSYM    DATA     BYTE      P5M0
      000000A0H   SFRSYM    DATA     BYTE      P2
      000000B1H   SFRSYM    DATA     BYTE      P3M1
      000000B4H   SFRSYM    DATA     BYTE      P4M0
      00000090H   SFRSYM    DATA     BYTE      P1
      00000095H   SFRSYM    DATA     BYTE      P2M1
      000000B2H   SFRSYM    DATA     BYTE      P3M0
      00000080H   SFRSYM    DATA     BYTE      P0
      00000091H   SFRSYM    DATA     BYTE      P1M1
      00000096H   SFRSYM    DATA     BYTE      P2M0
      00000092H   SFRSYM    DATA     BYTE      P1M0
      00000093H   SFRSYM    DATA     BYTE      P0M1
      00001319H   SYMBOL    EDATA    INT       pin
      0000131BH   SYMBOL    EDATA    INT       pull

L251 LINKER/LOCATER V4.66.93.0                                                        07/15/2024  23:31:17  PAGE 48


      00FF58FBH   BLOCK     CODE     ---       LVL=0
      0000131DH   SYMBOL    EDATA    INT       pin
      0000131FH   SYMBOL    EDATA    INT       mode
      00FF58FBH   LINE      CODE     ---       #54
      00FF5903H   LINE      CODE     ---       #56
      00FF5910H   LINE      CODE     ---       #58
      00FF5920H   LINE      CODE     ---       #60
      00FF593BH   LINE      CODE     ---       #61
      00FF5956H   LINE      CODE     ---       #62
      00FF5956H   LINE      CODE     ---       #63
      00FF5968H   LINE      CODE     ---       #65
      00FF5983H   LINE      CODE     ---       #66
      00FF599EH   LINE      CODE     ---       #67
      00FF599EH   LINE      CODE     ---       #68
      00FF59B0H   LINE      CODE     ---       #70
      00FF59CBH   LINE      CODE     ---       #71
      00FF59E6H   LINE      CODE     ---       #72
      00FF59E6H   LINE      CODE     ---       #74
      00FF59F8H   LINE      CODE     ---       #76
      00FF5A13H   LINE      CODE     ---       #77
      00FF5A2EH   LINE      CODE     ---       #78
      00FF5A2EH   LINE      CODE     ---       #79
      00FF5A40H   LINE      CODE     ---       #81
      00FF5A5BH   LINE      CODE     ---       #82
      00FF5A76H   LINE      CODE     ---       #83
      00FF5A76H   LINE      CODE     ---       #84
      00FF5A88H   LINE      CODE     ---       #86
      00FF5AA3H   LINE      CODE     ---       #87
      00FF5ABEH   LINE      CODE     ---       #88
      00FF5ABEH   LINE      CODE     ---       #89
      00FF5AD0H   LINE      CODE     ---       #91
      00FF5AEBH   LINE      CODE     ---       #92
      00FF5B06H   LINE      CODE     ---       #93
      00FF5B06H   LINE      CODE     ---       #94
      00FF5B1BH   LINE      CODE     ---       #96
      00FF5B36H   LINE      CODE     ---       #97
      00FF5B51H   LINE      CODE     ---       #98
      00FF5B54H   LINE      CODE     ---       #100
      00FF5B63H   LINE      CODE     ---       #102
      00FF5B73H   LINE      CODE     ---       #104
      00FF5B8EH   LINE      CODE     ---       #105
      00FF5BA7H   LINE      CODE     ---       #106
      00FF5BA7H   LINE      CODE     ---       #107
      00FF5BB9H   LINE      CODE     ---       #109
      00FF5BD4H   LINE      CODE     ---       #110
      00FF5BEDH   LINE      CODE     ---       #111
      00FF5BEDH   LINE      CODE     ---       #112
      00FF5BFFH   LINE      CODE     ---       #114
      00FF5C1AH   LINE      CODE     ---       #115
      00FF5C33H   LINE      CODE     ---       #116
      00FF5C33H   LINE      CODE     ---       #118
      00FF5C45H   LINE      CODE     ---       #120
      00FF5C60H   LINE      CODE     ---       #121
      00FF5C79H   LINE      CODE     ---       #122
      00FF5C79H   LINE      CODE     ---       #123
      00FF5C8BH   LINE      CODE     ---       #125
      00FF5CA6H   LINE      CODE     ---       #126
      00FF5CBFH   LINE      CODE     ---       #127
      00FF5CBFH   LINE      CODE     ---       #128
      00FF5CD1H   LINE      CODE     ---       #130
      00FF5CECH   LINE      CODE     ---       #131
      00FF5D05H   LINE      CODE     ---       #132
      00FF5D05H   LINE      CODE     ---       #133
      00FF5D17H   LINE      CODE     ---       #135
      00FF5D32H   LINE      CODE     ---       #136
L251 LINKER/LOCATER V4.66.93.0                                                        07/15/2024  23:31:17  PAGE 49


      00FF5D4BH   LINE      CODE     ---       #137
      00FF5D4BH   LINE      CODE     ---       #138
      00FF5D60H   LINE      CODE     ---       #140
      00FF5D7BH   LINE      CODE     ---       #141
      00FF5D94H   LINE      CODE     ---       #142
      00FF5D97H   LINE      CODE     ---       #145
      00FF5DA6H   LINE      CODE     ---       #147
      00FF5DB6H   LINE      CODE     ---       #149
      00FF5DCFH   LINE      CODE     ---       #150
      00FF5DEAH   LINE      CODE     ---       #151
      00FF5DEAH   LINE      CODE     ---       #152
      00FF5DFCH   LINE      CODE     ---       #154
      00FF5E15H   LINE      CODE     ---       #155
      00FF5E30H   LINE      CODE     ---       #156
      00FF5E30H   LINE      CODE     ---       #157
      00FF5E42H   LINE      CODE     ---       #159
      00FF5E5BH   LINE      CODE     ---       #160
      00FF5E76H   LINE      CODE     ---       #161
      00FF5E76H   LINE      CODE     ---       #163
      00FF5E88H   LINE      CODE     ---       #165
      00FF5EA1H   LINE      CODE     ---       #166
      00FF5EBCH   LINE      CODE     ---       #167
      00FF5EBCH   LINE      CODE     ---       #168
      00FF5ECEH   LINE      CODE     ---       #170
      00FF5EE7H   LINE      CODE     ---       #171
      00FF5F02H   LINE      CODE     ---       #172
      00FF5F02H   LINE      CODE     ---       #173
      00FF5F14H   LINE      CODE     ---       #175
      00FF5F2DH   LINE      CODE     ---       #176
      00FF5F48H   LINE      CODE     ---       #177
      00FF5F48H   LINE      CODE     ---       #178
      00FF5F5AH   LINE      CODE     ---       #180
      00FF5F73H   LINE      CODE     ---       #181
      00FF5F8EH   LINE      CODE     ---       #182
      00FF5F8EH   LINE      CODE     ---       #183
      00FF5FA3H   LINE      CODE     ---       #185
      00FF5FBCH   LINE      CODE     ---       #186
      00FF5FD7H   LINE      CODE     ---       #187
      00FF5FDAH   LINE      CODE     ---       #189
      00FF5FE9H   LINE      CODE     ---       #191
      00FF5FF9H   LINE      CODE     ---       #193
      00FF6012H   LINE      CODE     ---       #194
      00FF602BH   LINE      CODE     ---       #195
      00FF602BH   LINE      CODE     ---       #196
      00FF603DH   LINE      CODE     ---       #198
      00FF6056H   LINE      CODE     ---       #199
      00FF606FH   LINE      CODE     ---       #200
      00FF606FH   LINE      CODE     ---       #201
      00FF6081H   LINE      CODE     ---       #203
      00FF609AH   LINE      CODE     ---       #204
      00FF60B3H   LINE      CODE     ---       #205
      00FF60B3H   LINE      CODE     ---       #207
      00FF60C5H   LINE      CODE     ---       #209
      00FF60DEH   LINE      CODE     ---       #210
      00FF60F7H   LINE      CODE     ---       #211
      00FF60F7H   LINE      CODE     ---       #212
      00FF6109H   LINE      CODE     ---       #214
      00FF6122H   LINE      CODE     ---       #215
      00FF613BH   LINE      CODE     ---       #216
      00FF613BH   LINE      CODE     ---       #217
      00FF614DH   LINE      CODE     ---       #219
      00FF6166H   LINE      CODE     ---       #220
      00FF617FH   LINE      CODE     ---       #221
      00FF617FH   LINE      CODE     ---       #222
      00FF6191H   LINE      CODE     ---       #224
L251 LINKER/LOCATER V4.66.93.0                                                        07/15/2024  23:31:17  PAGE 50


      00FF61AAH   LINE      CODE     ---       #225
      00FF61C3H   LINE      CODE     ---       #226
      00FF61C3H   LINE      CODE     ---       #227
      00FF61D5H   LINE      CODE     ---       #229
      00FF61EEH   LINE      CODE     ---       #230
      00FF6207H   LINE      CODE     ---       #231
      00FF6207H   LINE      CODE     ---       #233
      ---         BLOCKEND  ---      ---       LVL=0

      ---         MODULE    ---      ---       zf_iic
      0000121FH   PUBLIC    EDATA    BYTE      ?iic_init?BYTE
      000000D0H   SFRSYM    DATA     BYTE      PSW
      0000009DH   SFRSYM    DATA     BYTE      IRCBAND
      00000097H   SFRSYM    DATA     BYTE      AUXR2
      000000EFH   SFRSYM    DATA     BYTE      AUXINTIF
      000000FDH   SFRSYM    DATA     BYTE      S4CON
      000000ACH   SFRSYM    DATA     BYTE      S3CON
      0000009AH   SFRSYM    DATA     BYTE      S2CON
      000000B7H   SFRSYM    DATA     BYTE      IPH
      000000CDH   SFRSYM    DATA     BYTE      SPSTAT
      000000DDH   SFRSYM    DATA     BYTE      T4T3M
      000000C1H   SFRSYM    DATA     BYTE      WDT_CONTR
      000000DFH   SFRSYM    DATA     BYTE      IP3
      000000F4H   SFRSYM    DATA     BYTE      USBCON
      000000B5H   SFRSYM    DATA     BYTE      IP2
      000000FFH   SFRSYM    DATA     BYTE      RSTCFG
      000000C7H   SFRSYM    DATA     BYTE      IAP_CONTR
      000000F9H   SFRSYM    DATA     BYTE      LINICR
      0000008EH   SFRSYM    DATA     BYTE      AUXR
      000000AFH   SFRSYM    DATA     BYTE      IE2
      00000088H   SFRSYM    DATA     BYTE      TCON
      00000089H   SFRSYM    DATA     BYTE      TMOD
      00000098H   SFRSYM    DATA     BYTE      SCON
      000000F1H   SFRSYM    DATA     BYTE      CANICR
      00000087H   SFRSYM    DATA     BYTE      PCON
      000000BCH   SFRSYM    DATA     BYTE      ADC_CONTR
      000000E7H   SFRSYM    DATA     BYTE      CMPCR2
      000000E6H   SFRSYM    DATA     BYTE      CMPCR1
      000000DEH   SFRSYM    DATA     BYTE      ADCCFG
      000000B8H   SFRSYM    DATA     BYTE      IP
      0000008FH   SFRSYM    DATA     BYTE      INTCLKO
      000000EEH   SFRSYM    DATA     BYTE      IP3H
      000000B6H   SFRSYM    DATA     BYTE      IP2H
      000000A8H   SFRSYM    DATA     BYTE      IE
      000000BBH   SFRSYM    DATA     BYTE      P_SW3
      000000BAH   SFRSYM    DATA     BYTE      P_SW2
      000000A2H   SFRSYM    DATA     BYTE      P_SW1
      000000CEH   SFRSYM    DATA     BYTE      SPCTL
      000000F8H   SFRSYM    DATA     BYTE      P7
      000000E8H   SFRSYM    DATA     BYTE      P6
      000000C8H   SFRSYM    DATA     BYTE      P5
      000000C0H   SFRSYM    DATA     BYTE      P4
      000000B0H   SFRSYM    DATA     BYTE      P3
      000000A0H   SFRSYM    DATA     BYTE      P2
      00000090H   SFRSYM    DATA     BYTE      P1
      00000080H   SFRSYM    DATA     BYTE      P0
      0000136DH   SYMBOL    EDATA    WORD      x
      0000136FH   SYMBOL    EDATA    BYTE      i
      00001370H   SYMBOL    EDATA    WORD      count
      00001372H   SYMBOL    EDATA    BYTE      ret
      00001419H   SYMBOL    EDATA    BYTE      ret
      000013B7H   SYMBOL    EDATA    CHAR      dat
      000013B8H   SYMBOL    EDATA    BYTE      ret
      0000141AH   SYMBOL    EDATA    BYTE      ret
      0000141BH   SYMBOL    EDATA    BYTE      ret
L251 LINKER/LOCATER V4.66.93.0                                                        07/15/2024  23:31:17  PAGE 51


      0000141CH   SYMBOL    EDATA    BYTE      ret
      00001223H   SYMBOL    EDATA    INT       iic_n
      00001225H   SYMBOL    EDATA    DWORD     wait_time
      00001373H   SYMBOL    EDATA    BYTE      dev_add
      00001374H   SYMBOL    EDATA    BYTE      reg
      00001375H   SYMBOL    EDATA    BYTE      dat
      00001229H   SYMBOL    EDATA    BYTE      dev_add
      0000122AH   SYMBOL    EDATA    BYTE      reg
      0000122BH   SYMBOL    EDATA    ---       dat
      000011D8H   SYMBOL    EDATA    BYTE      dev_add
      000011D9H   SYMBOL    EDATA    BYTE      reg
      000011DAH   SYMBOL    EDATA    ---       dat
      000011DEH   SYMBOL    EDATA    BYTE      num
      000013B9H   SYMBOL    EDATA    INT       iic_n

      ---         MODULE    ---      ---       zf_nvic
      000000D0H   SFRSYM    DATA     BYTE      PSW
      0000009DH   SFRSYM    DATA     BYTE      IRCBAND
      00000097H   SFRSYM    DATA     BYTE      AUXR2
      000000EFH   SFRSYM    DATA     BYTE      AUXINTIF
      000000FDH   SFRSYM    DATA     BYTE      S4CON
      000000ACH   SFRSYM    DATA     BYTE      S3CON
      0000009AH   SFRSYM    DATA     BYTE      S2CON
      000000B7H   SFRSYM    DATA     BYTE      IPH
      000000CDH   SFRSYM    DATA     BYTE      SPSTAT
      000000DDH   SFRSYM    DATA     BYTE      T4T3M
      000000C1H   SFRSYM    DATA     BYTE      WDT_CONTR
      000000DFH   SFRSYM    DATA     BYTE      IP3
      000000F4H   SFRSYM    DATA     BYTE      USBCON
      000000B5H   SFRSYM    DATA     BYTE      IP2
      000000FFH   SFRSYM    DATA     BYTE      RSTCFG
      000000C7H   SFRSYM    DATA     BYTE      IAP_CONTR
      000000F9H   SFRSYM    DATA     BYTE      LINICR
      0000008EH   SFRSYM    DATA     BYTE      AUXR
      000000AFH   SFRSYM    DATA     BYTE      IE2
      00000088H   SFRSYM    DATA     BYTE      TCON
      00000089H   SFRSYM    DATA     BYTE      TMOD
      00000098H   SFRSYM    DATA     BYTE      SCON
      000000F1H   SFRSYM    DATA     BYTE      CANICR
      00000087H   SFRSYM    DATA     BYTE      PCON
      000000BCH   SFRSYM    DATA     BYTE      ADC_CONTR
      000000E7H   SFRSYM    DATA     BYTE      CMPCR2
      000000E6H   SFRSYM    DATA     BYTE      CMPCR1
      000000DEH   SFRSYM    DATA     BYTE      ADCCFG
      000000B8H   SFRSYM    DATA     BYTE      IP
      0000008FH   SFRSYM    DATA     BYTE      INTCLKO
      000000EEH   SFRSYM    DATA     BYTE      IP3H
      000000B6H   SFRSYM    DATA     BYTE      IP2H
      000000A8H   SFRSYM    DATA     BYTE      IE
      000000BBH   SFRSYM    DATA     BYTE      P_SW3
      000000BAH   SFRSYM    DATA     BYTE      P_SW2
      000000A2H   SFRSYM    DATA     BYTE      P_SW1
      000000CEH   SFRSYM    DATA     BYTE      SPCTL
      000000F8H   SFRSYM    DATA     BYTE      P7
      000000E8H   SFRSYM    DATA     BYTE      P6
      000000C8H   SFRSYM    DATA     BYTE      P5
      000000C0H   SFRSYM    DATA     BYTE      P4
      000000B0H   SFRSYM    DATA     BYTE      P3
      000000A0H   SFRSYM    DATA     BYTE      P2
      00000090H   SFRSYM    DATA     BYTE      P1
      00000080H   SFRSYM    DATA     BYTE      P0
      00001376H   SYMBOL    EDATA    INT       irqn
      00001378H   SYMBOL    EDATA    BYTE      priority

      ---         MODULE    ---      ---       zf_pwm
L251 LINKER/LOCATER V4.66.93.0                                                        07/15/2024  23:31:17  PAGE 52


      00FF8ECCH   PUBLIC    CODE     ---       pwm_duty
      00FF7CEFH   PUBLIC    CODE     ---       pwm_set_gpio
      00FF7583H   PUBLIC    CODE     ---       pwm_init
      00FFAB91H   PUBLIC    HCONST   ---       PWM_CCR_ADDR
      00FFABB1H   PUBLIC    HCONST   ---       PWM_ARR_ADDR
      00FFABB9H   PUBLIC    HCONST   ---       PWM_CCER_ADDR
      00FFABC9H   PUBLIC    HCONST   ---       PWM_CCMR_ADDR
      00000CC6H   PUBLIC    EDATA    BYTE      ?pwm_init?BYTE
      00000CDAH   PUBLIC    EDATA    BYTE      ?pwm_freq?BYTE
      000000D0H   SFRSYM    DATA     BYTE      PSW
      0000009DH   SFRSYM    DATA     BYTE      IRCBAND
      00000097H   SFRSYM    DATA     BYTE      AUXR2
      000000EFH   SFRSYM    DATA     BYTE      AUXINTIF
      000000FDH   SFRSYM    DATA     BYTE      S4CON
      000000ACH   SFRSYM    DATA     BYTE      S3CON
      0000009AH   SFRSYM    DATA     BYTE      S2CON
      000000B7H   SFRSYM    DATA     BYTE      IPH
      000000CDH   SFRSYM    DATA     BYTE      SPSTAT
      000000DDH   SFRSYM    DATA     BYTE      T4T3M
      000000C1H   SFRSYM    DATA     BYTE      WDT_CONTR
      000000DFH   SFRSYM    DATA     BYTE      IP3
      000000F4H   SFRSYM    DATA     BYTE      USBCON
      000000B5H   SFRSYM    DATA     BYTE      IP2
      000000FFH   SFRSYM    DATA     BYTE      RSTCFG
      000000C7H   SFRSYM    DATA     BYTE      IAP_CONTR
      000000F9H   SFRSYM    DATA     BYTE      LINICR
      0000008EH   SFRSYM    DATA     BYTE      AUXR
      000000AFH   SFRSYM    DATA     BYTE      IE2
      00000088H   SFRSYM    DATA     BYTE      TCON
      00000089H   SFRSYM    DATA     BYTE      TMOD
      00000098H   SFRSYM    DATA     BYTE      SCON
      000000F1H   SFRSYM    DATA     BYTE      CANICR
      00000087H   SFRSYM    DATA     BYTE      PCON
      000000BCH   SFRSYM    DATA     BYTE      ADC_CONTR
      000000E7H   SFRSYM    DATA     BYTE      CMPCR2
      000000E6H   SFRSYM    DATA     BYTE      CMPCR1
      000000DEH   SFRSYM    DATA     BYTE      ADCCFG
      000000B8H   SFRSYM    DATA     BYTE      IP
      0000008FH   SFRSYM    DATA     BYTE      INTCLKO
      000000EEH   SFRSYM    DATA     BYTE      IP3H
      000000B6H   SFRSYM    DATA     BYTE      IP2H
      000000A8H   SFRSYM    DATA     BYTE      IE
      000000BBH   SFRSYM    DATA     BYTE      P_SW3
      000000BAH   SFRSYM    DATA     BYTE      P_SW2
      000000A2H   SFRSYM    DATA     BYTE      P_SW1
      000000CEH   SFRSYM    DATA     BYTE      SPCTL
      000000F8H   SFRSYM    DATA     BYTE      P7
      000000E8H   SFRSYM    DATA     BYTE      P6
      000000C8H   SFRSYM    DATA     BYTE      P5
      000000C0H   SFRSYM    DATA     BYTE      P4
      000000B0H   SFRSYM    DATA     BYTE      P3
      000000A0H   SFRSYM    DATA     BYTE      P2
      00000090H   SFRSYM    DATA     BYTE      P1
      00000080H   SFRSYM    DATA     BYTE      P0

      00FF7CEFH   BLOCK     CODE     ---       LVL=0
      000013BBH   SYMBOL    EDATA    INT       pwmch
      00FF7CEFH   LINE      CODE     ---       #49
      00FF7CF3H   LINE      CODE     ---       #51
      00FF7E65H   LINE      CODE     ---       #53
      00FF7E65H   LINE      CODE     ---       #55
      00FF7E70H   LINE      CODE     ---       #56
      00FF7E73H   LINE      CODE     ---       #58
      00FF7E73H   LINE      CODE     ---       #60
      00FF7E7EH   LINE      CODE     ---       #61
L251 LINKER/LOCATER V4.66.93.0                                                        07/15/2024  23:31:17  PAGE 53


      00FF7E81H   LINE      CODE     ---       #63
      00FF7E81H   LINE      CODE     ---       #65
      00FF7E8CH   LINE      CODE     ---       #66
      00FF7E8FH   LINE      CODE     ---       #68
      00FF7E8FH   LINE      CODE     ---       #70
      00FF7E9AH   LINE      CODE     ---       #71
      00FF7E9DH   LINE      CODE     ---       #84
      00FF7E9DH   LINE      CODE     ---       #86
      00FF7EA8H   LINE      CODE     ---       #87
      00FF7EABH   LINE      CODE     ---       #89
      00FF7EABH   LINE      CODE     ---       #91
      00FF7EB6H   LINE      CODE     ---       #92
      00FF7EB9H   LINE      CODE     ---       #94
      00FF7EB9H   LINE      CODE     ---       #96
      00FF7EC4H   LINE      CODE     ---       #97
      00FF7EC7H   LINE      CODE     ---       #99
      00FF7EC7H   LINE      CODE     ---       #101
      00FF7ED2H   LINE      CODE     ---       #102
      00FF7ED5H   LINE      CODE     ---       #115
      00FF7ED5H   LINE      CODE     ---       #117
      00FF7EE0H   LINE      CODE     ---       #118
      00FF7EE3H   LINE      CODE     ---       #120
      00FF7EE3H   LINE      CODE     ---       #122
      00FF7EEEH   LINE      CODE     ---       #123
      00FF7EF1H   LINE      CODE     ---       #125
      00FF7EF1H   LINE      CODE     ---       #127
      00FF7EFCH   LINE      CODE     ---       #128
      00FF7EFFH   LINE      CODE     ---       #130
      00FF7EFFH   LINE      CODE     ---       #132
      00FF7F0AH   LINE      CODE     ---       #133
      00FF7F0DH   LINE      CODE     ---       #147
      00FF7F0DH   LINE      CODE     ---       #149
      00FF7F18H   LINE      CODE     ---       #150
      00FF7F1BH   LINE      CODE     ---       #152
      00FF7F1BH   LINE      CODE     ---       #154
      00FF7F26H   LINE      CODE     ---       #155
      00FF7F29H   LINE      CODE     ---       #157
      00FF7F29H   LINE      CODE     ---       #159
      00FF7F34H   LINE      CODE     ---       #160
      00FF7F37H   LINE      CODE     ---       #162
      00FF7F37H   LINE      CODE     ---       #164
      00FF7F42H   LINE      CODE     ---       #165
      00FF7F45H   LINE      CODE     ---       #177
      00FF7F45H   LINE      CODE     ---       #179
      00FF7F50H   LINE      CODE     ---       #180
      00FF7F53H   LINE      CODE     ---       #182
      00FF7F53H   LINE      CODE     ---       #184
      00FF7F5EH   LINE      CODE     ---       #185
      00FF7F61H   LINE      CODE     ---       #189
      00FF7F61H   LINE      CODE     ---       #191
      00FF7F6CH   LINE      CODE     ---       #192
      00FF7F6FH   LINE      CODE     ---       #194
      00FF7F6FH   LINE      CODE     ---       #196
      00FF7F7AH   LINE      CODE     ---       #197
      00FF7F7CH   LINE      CODE     ---       #199
      00FF7F7CH   LINE      CODE     ---       #201
      00FF7F85H   LINE      CODE     ---       #202
      00FF7F87H   LINE      CODE     ---       #210
      00FF7F87H   LINE      CODE     ---       #212
      00FF7F92H   LINE      CODE     ---       #213
      00FF7F94H   LINE      CODE     ---       #215
      00FF7F94H   LINE      CODE     ---       #217
      00FF7F9FH   LINE      CODE     ---       #218
      00FF7FA1H   LINE      CODE     ---       #220
      00FF7FA1H   LINE      CODE     ---       #222
L251 LINKER/LOCATER V4.66.93.0                                                        07/15/2024  23:31:17  PAGE 54


      00FF7FACH   LINE      CODE     ---       #223
      00FF7FAEH   LINE      CODE     ---       #232
      00FF7FAEH   LINE      CODE     ---       #234
      00FF7FB9H   LINE      CODE     ---       #235
      00FF7FBBH   LINE      CODE     ---       #237
      00FF7FBBH   LINE      CODE     ---       #239
      00FF7FC6H   LINE      CODE     ---       #240
      00FF7FC8H   LINE      CODE     ---       #242
      00FF7FC8H   LINE      CODE     ---       #244
      00FF7FD3H   LINE      CODE     ---       #245
      00FF7FD5H   LINE      CODE     ---       #254
      00FF7FD5H   LINE      CODE     ---       #256
      00FF7FE0H   LINE      CODE     ---       #257
      00FF7FE2H   LINE      CODE     ---       #259
      00FF7FE2H   LINE      CODE     ---       #261
      00FF7FEDH   LINE      CODE     ---       #262
      00FF7FEFH   LINE      CODE     ---       #264
      00FF7FEFH   LINE      CODE     ---       #266
      00FF7FFAH   LINE      CODE     ---       #267
      00FF7FFAH   LINE      CODE     ---       #275
      00FF7FFAH   LINE      CODE     ---       #277
      ---         BLOCKEND  ---      ---       LVL=0

      00FF7583H   BLOCK     CODE     ---       LVL=0
      00000CC6H   SYMBOL    EDATA    INT       pwmch
      00000CC8H   SYMBOL    EDATA    DWORD     freq
      00000CCCH   SYMBOL    EDATA    DWORD     duty
      00FF758BH   BLOCK     CODE     NEAR LAB  LVL=1
      00000CD0H   SYMBOL    EDATA    DWORD     match_temp
      00000CD4H   SYMBOL    EDATA    DWORD     period_temp
      00000CD8H   SYMBOL    EDATA    WORD      freq_div
      ---         BLOCKEND  ---      ---       LVL=1
      00FF7583H   LINE      CODE     ---       #290
      00FF758BH   LINE      CODE     ---       #291
      00FF758BH   LINE      CODE     ---       #295
      00FF7591H   LINE      CODE     ---       #298
      00FF7594H   LINE      CODE     ---       #301
      00FF759BH   LINE      CODE     ---       #305
      00FF75AEH   LINE      CODE     ---       #306
      00FF75BDH   LINE      CODE     ---       #307
      00FF75D8H   LINE      CODE     ---       #309
      00FF75E2H   LINE      CODE     ---       #311
      00FF7609H   LINE      CODE     ---       #312
      00FF760BH   LINE      CODE     ---       #315
      00FF7619H   LINE      CODE     ---       #316
      00FF7619H   LINE      CODE     ---       #319
      00FF7628H   LINE      CODE     ---       #322
      00FF7659H   LINE      CODE     ---       #323
      00FF7690H   LINE      CODE     ---       #326
      00FF76E2H   LINE      CODE     ---       #329
      00FF76F5H   LINE      CODE     ---       #330
      00FF7704H   LINE      CODE     ---       #332
      00FF7711H   LINE      CODE     ---       #333
      00FF771EH   LINE      CODE     ---       #334
      00FF7721H   LINE      CODE     ---       #337
      00FF775FH   LINE      CODE     ---       #338
      00FF7792H   LINE      CODE     ---       #341
      00FF77F2H   LINE      CODE     ---       #345
      00FF7805H   LINE      CODE     ---       #346
      00FF7814H   LINE      CODE     ---       #348
      00FF7821H   LINE      CODE     ---       #349
      00FF782EH   LINE      CODE     ---       #350
      00FF782EH   LINE      CODE     ---       #353
      00FF7860H   LINE      CODE     ---       #354
      00FF7898H   LINE      CODE     ---       #357
L251 LINKER/LOCATER V4.66.93.0                                                        07/15/2024  23:31:17  PAGE 55


      00FF78C6H   LINE      CODE     ---       #358
      00FF78FAH   LINE      CODE     ---       #361
      00FF792BH   LINE      CODE     ---       #362
      00FF795CH   LINE      CODE     ---       #367
      ---         BLOCKEND  ---      ---       LVL=0

      00FF8ECCH   BLOCK     CODE     ---       LVL=0
      00000DE2H   SYMBOL    EDATA    INT       pwmch
      00000DE4H   SYMBOL    EDATA    DWORD     duty
      00FF8ED4H   BLOCK     CODE     NEAR LAB  LVL=1
      00000DE8H   SYMBOL    EDATA    DWORD     match_temp
      00000DECH   SYMBOL    EDATA    DWORD     arr
      ---         BLOCKEND  ---      ---       LVL=1
      00FF8ECCH   LINE      CODE     ---       #377
      00FF8ED4H   LINE      CODE     ---       #378
      00FF8ED4H   LINE      CODE     ---       #380
      00FF8F40H   LINE      CODE     ---       #384
      00FF8F4AH   LINE      CODE     ---       #386
      00FF8F71H   LINE      CODE     ---       #387
      00FF8F73H   LINE      CODE     ---       #390
      00FF8F81H   LINE      CODE     ---       #391
      00FF8F81H   LINE      CODE     ---       #396
      00FF8FAFH   LINE      CODE     ---       #397
      00FF8FE3H   LINE      CODE     ---       #401
      ---         BLOCKEND  ---      ---       LVL=0
      00000CDAH   SYMBOL    EDATA    INT       pwmch
      00000CDCH   SYMBOL    EDATA    DWORD     freq
      00000CE0H   SYMBOL    EDATA    DWORD     duty
      00000CE4H   SYMBOL    EDATA    DWORD     match_temp
      00000CE8H   SYMBOL    EDATA    DWORD     period_temp
      00000CECH   SYMBOL    EDATA    WORD      freq_div

      ---         MODULE    ---      ---       zf_spi
      00FF90F9H   PUBLIC    CODE     ---       spi_init
      00FFA48BH   PUBLIC    CODE     ---       spi_mosi
      000011D9H   PUBLIC    EDATA    BYTE      ?spi_init?BYTE
      000000CFH   SFRSYM    DATA     BYTE      SPDAT
      000000D0H   SFRSYM    DATA     BYTE      PSW
      0000009DH   SFRSYM    DATA     BYTE      IRCBAND
      00000097H   SFRSYM    DATA     BYTE      AUXR2
      000000EFH   SFRSYM    DATA     BYTE      AUXINTIF
      000000FDH   SFRSYM    DATA     BYTE      S4CON
      000000ACH   SFRSYM    DATA     BYTE      S3CON
      0000009AH   SFRSYM    DATA     BYTE      S2CON
      000000B7H   SFRSYM    DATA     BYTE      IPH
      000000CDH   SFRSYM    DATA     BYTE      SPSTAT
      000000DDH   SFRSYM    DATA     BYTE      T4T3M
      000000C1H   SFRSYM    DATA     BYTE      WDT_CONTR
      000000DFH   SFRSYM    DATA     BYTE      IP3
      000000F4H   SFRSYM    DATA     BYTE      USBCON
      000000B5H   SFRSYM    DATA     BYTE      IP2
      000000FFH   SFRSYM    DATA     BYTE      RSTCFG
      000000C7H   SFRSYM    DATA     BYTE      IAP_CONTR
      000000F9H   SFRSYM    DATA     BYTE      LINICR
      0000008EH   SFRSYM    DATA     BYTE      AUXR
      000000AFH   SFRSYM    DATA     BYTE      IE2
      00000088H   SFRSYM    DATA     BYTE      TCON
      00000089H   SFRSYM    DATA     BYTE      TMOD
      00000098H   SFRSYM    DATA     BYTE      SCON
      000000F1H   SFRSYM    DATA     BYTE      CANICR
      00000087H   SFRSYM    DATA     BYTE      PCON
      000000BCH   SFRSYM    DATA     BYTE      ADC_CONTR
      000000E7H   SFRSYM    DATA     BYTE      CMPCR2
      000000E6H   SFRSYM    DATA     BYTE      CMPCR1
      000000DEH   SFRSYM    DATA     BYTE      ADCCFG
L251 LINKER/LOCATER V4.66.93.0                                                        07/15/2024  23:31:17  PAGE 56


      000000B8H   SFRSYM    DATA     BYTE      IP
      0000008FH   SFRSYM    DATA     BYTE      INTCLKO
      000000EEH   SFRSYM    DATA     BYTE      IP3H
      000000B6H   SFRSYM    DATA     BYTE      IP2H
      000000A8H   SFRSYM    DATA     BYTE      IE
      000000BBH   SFRSYM    DATA     BYTE      P_SW3
      000000BAH   SFRSYM    DATA     BYTE      P_SW2
      000000A2H   SFRSYM    DATA     BYTE      P_SW1
      000000CEH   SFRSYM    DATA     BYTE      SPCTL
      000000F8H   SFRSYM    DATA     BYTE      P7
      000000E8H   SFRSYM    DATA     BYTE      P6
      000000C8H   SFRSYM    DATA     BYTE      P5
      000000C0H   SFRSYM    DATA     BYTE      P4
      000000B0H   SFRSYM    DATA     BYTE      P3
      000000A0H   SFRSYM    DATA     BYTE      P2
      00000090H   SFRSYM    DATA     BYTE      P1
      00000080H   SFRSYM    DATA     BYTE      P0

      00FF90F9H   BLOCK     CODE     ---       LVL=0
      000011DFH   SYMBOL    EDATA    INT       spi_n
      000011E1H   SYMBOL    EDATA    BYTE      mode
      000011E2H   SYMBOL    EDATA    INT       mstr
      000011E4H   SYMBOL    EDATA    INT       baud
      00FF90F9H   LINE      CODE     ---       #39
      00FF9101H   LINE      CODE     ---       #47
      00FF9113H   LINE      CODE     ---       #50
      00FF9113H   LINE      CODE     ---       #51
      00FF911CH   LINE      CODE     ---       #52
      00FF9125H   LINE      CODE     ---       #53
      00FF912EH   LINE      CODE     ---       #54
      00FF9130H   LINE      CODE     ---       #55
      00FF9130H   LINE      CODE     ---       #56
      00FF9139H   LINE      CODE     ---       #57
      00FF9142H   LINE      CODE     ---       #58
      00FF914BH   LINE      CODE     ---       #59
      00FF914DH   LINE      CODE     ---       #60
      00FF914DH   LINE      CODE     ---       #61
      00FF9156H   LINE      CODE     ---       #62
      00FF915FH   LINE      CODE     ---       #63
      00FF9168H   LINE      CODE     ---       #64
      00FF916AH   LINE      CODE     ---       #65
      00FF916AH   LINE      CODE     ---       #66
      00FF9173H   LINE      CODE     ---       #67
      00FF917CH   LINE      CODE     ---       #68
      00FF9185H   LINE      CODE     ---       #69
      00FF9185H   LINE      CODE     ---       #70
      00FF9185H   LINE      CODE     ---       #72
      00FF9188H   LINE      CODE     ---       #73
      00FF919EH   LINE      CODE     ---       #75
      00FF919EH   LINE      CODE     ---       #76
      00FF91A2H   LINE      CODE     ---       #77
      00FF91A4H   LINE      CODE     ---       #78
      00FF91A4H   LINE      CODE     ---       #79
      00FF91A7H   LINE      CODE     ---       #80
      00FF91A9H   LINE      CODE     ---       #81
      00FF91A9H   LINE      CODE     ---       #82
      00FF91ACH   LINE      CODE     ---       #83
      00FF91AEH   LINE      CODE     ---       #84
      00FF91AEH   LINE      CODE     ---       #85
      00FF91B1H   LINE      CODE     ---       #86
      00FF91B1H   LINE      CODE     ---       #87
      00FF91B1H   LINE      CODE     ---       #89
      00FF91B4H   LINE      CODE     ---       #90
      00FF91C3H   LINE      CODE     ---       #92
      00FF91C3H   LINE      CODE     ---       #94
L251 LINKER/LOCATER V4.66.93.0                                                        07/15/2024  23:31:17  PAGE 57


      00FF91C5H   LINE      CODE     ---       #95
      00FF91C5H   LINE      CODE     ---       #96
      00FF91C8H   LINE      CODE     ---       #97
      00FF91CAH   LINE      CODE     ---       #98
      00FF91CAH   LINE      CODE     ---       #99
      00FF91CDH   LINE      CODE     ---       #100
      00FF91CFH   LINE      CODE     ---       #101
      00FF91CFH   LINE      CODE     ---       #102
      00FF91D2H   LINE      CODE     ---       #103
      00FF91D2H   LINE      CODE     ---       #104
      00FF91D2H   LINE      CODE     ---       #107
      00FF91DAH   LINE      CODE     ---       #109
      00FF91E4H   LINE      CODE     ---       #111
      00FF91E7H   LINE      CODE     ---       #112
      00FF91EAH   LINE      CODE     ---       #113
      00FF91EAH   LINE      CODE     ---       #117
      00FF91EAH   LINE      CODE     ---       #118
      00FF91EDH   LINE      CODE     ---       #119
      ---         BLOCKEND  ---      ---       LVL=0

      00FFA48BH   BLOCK     CODE     ---       LVL=0
      0000141DH   SYMBOL    EDATA    BYTE      dat
      00FFA48BH   LINE      CODE     ---       #129
      00FFA48FH   LINE      CODE     ---       #131
      00FFA491H   LINE      CODE     ---       #132
      00FFA496H   LINE      CODE     ---       #133
      00FFA49AH   LINE      CODE     ---       #134
      00FFA49CH   LINE      CODE     ---       #135
      ---         BLOCKEND  ---      ---       LVL=0
      000013BDH   SYMBOL    EDATA    INT       spi_n
      0000141EH   SYMBOL    EDATA    BYTE      mode

      ---         MODULE    ---      ---       zf_tim
      00FF95DEH   PUBLIC    CODE     ---       ctimer_count_read
      00FF91EEH   PUBLIC    CODE     ---       pit_timer_ms
      00FF9D45H   PUBLIC    CODE     ---       ctimer_count_init
      00FF9BDCH   PUBLIC    CODE     ---       ctimer_count_clean
      000000D0H   SFRSYM    DATA     BYTE      PSW
      0000009DH   SFRSYM    DATA     BYTE      IRCBAND
      00000097H   SFRSYM    DATA     BYTE      AUXR2
      000000EFH   SFRSYM    DATA     BYTE      AUXINTIF
      000000FDH   SFRSYM    DATA     BYTE      S4CON
      000000ACH   SFRSYM    DATA     BYTE      S3CON
      0000009AH   SFRSYM    DATA     BYTE      S2CON
      000000B7H   SFRSYM    DATA     BYTE      IPH
      000000CDH   SFRSYM    DATA     BYTE      SPSTAT
      000000DDH   SFRSYM    DATA     BYTE      T4T3M
      000000C1H   SFRSYM    DATA     BYTE      WDT_CONTR
      00000088H.6 SFRSYM    DATA     BIT       TR1
      00000088H.4 SFRSYM    DATA     BIT       TR0
      000000D3H   SFRSYM    DATA     BYTE      T4L
      000000D5H   SFRSYM    DATA     BYTE      T3L
      000000D7H   SFRSYM    DATA     BYTE      T2L
      0000008BH   SFRSYM    DATA     BYTE      TL1
      0000008AH   SFRSYM    DATA     BYTE      TL0
      000000D2H   SFRSYM    DATA     BYTE      T4H
      000000D4H   SFRSYM    DATA     BYTE      T3H
      000000D6H   SFRSYM    DATA     BYTE      T2H
      0000008DH   SFRSYM    DATA     BYTE      TH1
      0000008CH   SFRSYM    DATA     BYTE      TH0
      000000DFH   SFRSYM    DATA     BYTE      IP3
      000000F4H   SFRSYM    DATA     BYTE      USBCON
      000000B5H   SFRSYM    DATA     BYTE      IP2
      000000FFH   SFRSYM    DATA     BYTE      RSTCFG
      000000A8H.3 SFRSYM    DATA     BIT       ET1
L251 LINKER/LOCATER V4.66.93.0                                                        07/15/2024  23:31:17  PAGE 58


      000000A8H.1 SFRSYM    DATA     BIT       ET0
      000000C7H   SFRSYM    DATA     BYTE      IAP_CONTR
      000000F9H   SFRSYM    DATA     BYTE      LINICR
      0000008EH   SFRSYM    DATA     BYTE      AUXR
      000000AFH   SFRSYM    DATA     BYTE      IE2
      00000088H   SFRSYM    DATA     BYTE      TCON
      00000089H   SFRSYM    DATA     BYTE      TMOD
      00000098H   SFRSYM    DATA     BYTE      SCON
      000000F1H   SFRSYM    DATA     BYTE      CANICR
      00000087H   SFRSYM    DATA     BYTE      PCON
      000000BCH   SFRSYM    DATA     BYTE      ADC_CONTR
      000000E7H   SFRSYM    DATA     BYTE      CMPCR2
      000000E6H   SFRSYM    DATA     BYTE      CMPCR1
      000000DEH   SFRSYM    DATA     BYTE      ADCCFG
      000000B8H   SFRSYM    DATA     BYTE      IP
      0000008FH   SFRSYM    DATA     BYTE      INTCLKO
      000000EEH   SFRSYM    DATA     BYTE      IP3H
      000000B6H   SFRSYM    DATA     BYTE      IP2H
      000000A8H   SFRSYM    DATA     BYTE      IE
      000000BBH   SFRSYM    DATA     BYTE      P_SW3
      000000BAH   SFRSYM    DATA     BYTE      P_SW2
      000000A2H   SFRSYM    DATA     BYTE      P_SW1
      000000CEH   SFRSYM    DATA     BYTE      SPCTL
      000000F8H   SFRSYM    DATA     BYTE      P7
      000000E8H   SFRSYM    DATA     BYTE      P6
      000000C8H   SFRSYM    DATA     BYTE      P5
      000000C0H   SFRSYM    DATA     BYTE      P4
      000000B0H   SFRSYM    DATA     BYTE      P3
      000000A0H   SFRSYM    DATA     BYTE      P2
      00000090H   SFRSYM    DATA     BYTE      P1
      00000080H   SFRSYM    DATA     BYTE      P0

      00FF9D45H   BLOCK     CODE     ---       LVL=0
      000013BFH   SYMBOL    EDATA    INT       tim_n
      00FF9D45H   LINE      CODE     ---       #39
      00FF9D49H   LINE      CODE     ---       #42
      00FF9D5DH   LINE      CODE     ---       #44
      00FF9D5DH   LINE      CODE     ---       #46
      00FF9D60H   LINE      CODE     ---       #47
      00FF9D63H   LINE      CODE     ---       #48
      00FF9D66H   LINE      CODE     ---       #49
      00FF9D69H   LINE      CODE     ---       #50
      00FF9D6BH   LINE      CODE     ---       #53
      00FF9D6BH   LINE      CODE     ---       #55
      00FF9D6EH   LINE      CODE     ---       #56
      00FF9D71H   LINE      CODE     ---       #57
      00FF9D74H   LINE      CODE     ---       #58
      00FF9D77H   LINE      CODE     ---       #59
      00FF9D79H   LINE      CODE     ---       #62
      00FF9D79H   LINE      CODE     ---       #64
      00FF9D7CH   LINE      CODE     ---       #65
      00FF9D7FH   LINE      CODE     ---       #66
      00FF9D82H   LINE      CODE     ---       #67
      00FF9D84H   LINE      CODE     ---       #70
      00FF9D84H   LINE      CODE     ---       #72
      00FF9D87H   LINE      CODE     ---       #73
      00FF9D8AH   LINE      CODE     ---       #74
      00FF9D8DH   LINE      CODE     ---       #75
      00FF9D8FH   LINE      CODE     ---       #78
      00FF9D8FH   LINE      CODE     ---       #80
      00FF9D92H   LINE      CODE     ---       #81
      00FF9D95H   LINE      CODE     ---       #82
      00FF9D98H   LINE      CODE     ---       #83
      00FF9D98H   LINE      CODE     ---       #86
      00FF9D98H   LINE      CODE     ---       #87
L251 LINKER/LOCATER V4.66.93.0                                                        07/15/2024  23:31:17  PAGE 59


      ---         BLOCKEND  ---      ---       LVL=0

      00FF95DEH   BLOCK     CODE     ---       LVL=0
      00001321H   SYMBOL    EDATA    INT       tim_n
      00FF95E2H   BLOCK     CODE     NEAR LAB  LVL=1
      00001323H   SYMBOL    EDATA    WORD      dat
      ---         BLOCKEND  ---      ---       LVL=1
      00FF95DEH   LINE      CODE     ---       #95
      00FF95E2H   LINE      CODE     ---       #96
      00FF95E2H   LINE      CODE     ---       #97
      00FF95E8H   LINE      CODE     ---       #99
      00FF9603H   LINE      CODE     ---       #101
      00FF9603H   LINE      CODE     ---       #103
      00FF960FH   LINE      CODE     ---       #104
      00FF961DH   LINE      CODE     ---       #105
      00FF961FH   LINE      CODE     ---       #107
      00FF961FH   LINE      CODE     ---       #109
      00FF962BH   LINE      CODE     ---       #110
      00FF9639H   LINE      CODE     ---       #111
      00FF963BH   LINE      CODE     ---       #113
      00FF963BH   LINE      CODE     ---       #115
      00FF9647H   LINE      CODE     ---       #116
      00FF9655H   LINE      CODE     ---       #117
      00FF9657H   LINE      CODE     ---       #119
      00FF9657H   LINE      CODE     ---       #121
      00FF9663H   LINE      CODE     ---       #122
      00FF9671H   LINE      CODE     ---       #123
      00FF9673H   LINE      CODE     ---       #125
      00FF9673H   LINE      CODE     ---       #127
      00FF967FH   LINE      CODE     ---       #128
      00FF968DH   LINE      CODE     ---       #129
      00FF968DH   LINE      CODE     ---       #132
      00FF968DH   LINE      CODE     ---       #133
      00FF9691H   LINE      CODE     ---       #134
      ---         BLOCKEND  ---      ---       LVL=0

      00FF9BDCH   BLOCK     CODE     ---       LVL=0
      000013C1H   SYMBOL    EDATA    INT       tim_n
      00FF9BDCH   LINE      CODE     ---       #143
      00FF9BE0H   LINE      CODE     ---       #145
      00FF9BF4H   LINE      CODE     ---       #147
      00FF9BF4H   LINE      CODE     ---       #149
      00FF9BF7H   LINE      CODE     ---       #150
      00FF9BFAH   LINE      CODE     ---       #151
      00FF9BFDH   LINE      CODE     ---       #152
      00FF9C00H   LINE      CODE     ---       #153
      00FF9C02H   LINE      CODE     ---       #155
      00FF9C02H   LINE      CODE     ---       #157
      00FF9C05H   LINE      CODE     ---       #158
      00FF9C08H   LINE      CODE     ---       #159
      00FF9C0BH   LINE      CODE     ---       #160
      00FF9C0EH   LINE      CODE     ---       #161
      00FF9C10H   LINE      CODE     ---       #163
      00FF9C10H   LINE      CODE     ---       #165
      00FF9C13H   LINE      CODE     ---       #166
      00FF9C16H   LINE      CODE     ---       #167
      00FF9C19H   LINE      CODE     ---       #168
      00FF9C1CH   LINE      CODE     ---       #169
      00FF9C1EH   LINE      CODE     ---       #171
      00FF9C1EH   LINE      CODE     ---       #173
      00FF9C21H   LINE      CODE     ---       #174
      00FF9C24H   LINE      CODE     ---       #175
      00FF9C27H   LINE      CODE     ---       #176
      00FF9C2AH   LINE      CODE     ---       #177
      00FF9C2CH   LINE      CODE     ---       #179
L251 LINKER/LOCATER V4.66.93.0                                                        07/15/2024  23:31:17  PAGE 60


      00FF9C2CH   LINE      CODE     ---       #181
      00FF9C2FH   LINE      CODE     ---       #182
      00FF9C32H   LINE      CODE     ---       #183
      00FF9C35H   LINE      CODE     ---       #184
      00FF9C38H   LINE      CODE     ---       #185
      00FF9C38H   LINE      CODE     ---       #187
      00FF9C38H   LINE      CODE     ---       #188
      ---         BLOCKEND  ---      ---       LVL=0

      00FF91EEH   BLOCK     CODE     ---       LVL=0
      0000122FH   SYMBOL    EDATA    INT       tim_n
      00001231H   SYMBOL    EDATA    WORD      time_ms
      00FF91F6H   BLOCK     CODE     NEAR LAB  LVL=1
      00001233H   SYMBOL    EDATA    WORD      temp
      ---         BLOCKEND  ---      ---       LVL=1
      00FF91EEH   LINE      CODE     ---       #198
      00FF91F6H   LINE      CODE     ---       #199
      00FF91F6H   LINE      CODE     ---       #201
      00FF9219H   LINE      CODE     ---       #203
      00FF9223H   LINE      CODE     ---       #205
      00FF9227H   LINE      CODE     ---       #206
      00FF922DH   LINE      CODE     ---       #207
      00FF9237H   LINE      CODE     ---       #208
      00FF923AH   LINE      CODE     ---       #209
      00FF923DH   LINE      CODE     ---       #210
      00FF9240H   LINE      CODE     ---       #211
      00FF924CH   LINE      CODE     ---       #213
      00FF9250H   LINE      CODE     ---       #214
      00FF9256H   LINE      CODE     ---       #215
      00FF9260H   LINE      CODE     ---       #216
      00FF9263H   LINE      CODE     ---       #217
      00FF9266H   LINE      CODE     ---       #218
      00FF9268H   LINE      CODE     ---       #219
      00FF9274H   LINE      CODE     ---       #221
      00FF927AH   LINE      CODE     ---       #222
      00FF9284H   LINE      CODE     ---       #223
      00FF9287H   LINE      CODE     ---       #224
      00FF928AH   LINE      CODE     ---       #225
      00FF928CH   LINE      CODE     ---       #226
      00FF9298H   LINE      CODE     ---       #228
      00FF929EH   LINE      CODE     ---       #229
      00FF92A8H   LINE      CODE     ---       #230
      00FF92ABH   LINE      CODE     ---       #231
      00FF92AEH   LINE      CODE     ---       #232
      00FF92B0H   LINE      CODE     ---       #233
      00FF92BCH   LINE      CODE     ---       #235
      00FF92C2H   LINE      CODE     ---       #236
      00FF92CCH   LINE      CODE     ---       #237
      00FF92CFH   LINE      CODE     ---       #238
      00FF92D2H   LINE      CODE     ---       #239
      ---         BLOCKEND  ---      ---       LVL=0

      ---         MODULE    ---      ---       zf_uart
      00FF9964H   PUBLIC    CODE     ---       uart_putchar
      00FF7FFBH   PUBLIC    CODE     ---       uart_init
      000012CBH   PUBLIC    EDATA    ---       busy
      00000DF0H   PUBLIC    EDATA    BYTE      ?uart_init?BYTE
      00000F9BH   PUBLIC    EDATA    BYTE      ?uart_putbuff?BYTE
      000000D0H   SFRSYM    DATA     BYTE      PSW
      0000009DH   SFRSYM    DATA     BYTE      IRCBAND
      00000097H   SFRSYM    DATA     BYTE      AUXR2
      000000EFH   SFRSYM    DATA     BYTE      AUXINTIF
      000000FDH   SFRSYM    DATA     BYTE      S4CON
      000000ACH   SFRSYM    DATA     BYTE      S3CON
      0000009AH   SFRSYM    DATA     BYTE      S2CON
L251 LINKER/LOCATER V4.66.93.0                                                        07/15/2024  23:31:17  PAGE 61


      000000FEH   SFRSYM    DATA     BYTE      S4BUF
      000000ADH   SFRSYM    DATA     BYTE      S3BUF
      0000009BH   SFRSYM    DATA     BYTE      S2BUF
      000000B7H   SFRSYM    DATA     BYTE      IPH
      000000CDH   SFRSYM    DATA     BYTE      SPSTAT
      000000DDH   SFRSYM    DATA     BYTE      T4T3M
      000000C1H   SFRSYM    DATA     BYTE      WDT_CONTR
      00000088H.6 SFRSYM    DATA     BIT       TR1
      000000D3H   SFRSYM    DATA     BYTE      T4L
      000000D5H   SFRSYM    DATA     BYTE      T3L
      000000D7H   SFRSYM    DATA     BYTE      T2L
      0000008BH   SFRSYM    DATA     BYTE      TL1
      000000D2H   SFRSYM    DATA     BYTE      T4H
      000000D4H   SFRSYM    DATA     BYTE      T3H
      000000D6H   SFRSYM    DATA     BYTE      T2H
      0000008DH   SFRSYM    DATA     BYTE      TH1
      000000DFH   SFRSYM    DATA     BYTE      IP3
      000000F4H   SFRSYM    DATA     BYTE      USBCON
      000000B5H   SFRSYM    DATA     BYTE      IP2
      000000FFH   SFRSYM    DATA     BYTE      RSTCFG
      000000C7H   SFRSYM    DATA     BYTE      IAP_CONTR
      000000F9H   SFRSYM    DATA     BYTE      LINICR
      0000008EH   SFRSYM    DATA     BYTE      AUXR
      000000AFH   SFRSYM    DATA     BYTE      IE2
      00000088H   SFRSYM    DATA     BYTE      TCON
      00000089H   SFRSYM    DATA     BYTE      TMOD
      00000098H   SFRSYM    DATA     BYTE      SCON
      000000F1H   SFRSYM    DATA     BYTE      CANICR
      00000087H   SFRSYM    DATA     BYTE      PCON
      00000099H   SFRSYM    DATA     BYTE      SBUF
      000000BCH   SFRSYM    DATA     BYTE      ADC_CONTR
      000000E7H   SFRSYM    DATA     BYTE      CMPCR2
      000000E6H   SFRSYM    DATA     BYTE      CMPCR1
      000000DEH   SFRSYM    DATA     BYTE      ADCCFG
      000000B8H   SFRSYM    DATA     BYTE      IP
      000000A8H.4 SFRSYM    DATA     BIT       ES
      0000008FH   SFRSYM    DATA     BYTE      INTCLKO
      000000EEH   SFRSYM    DATA     BYTE      IP3H
      000000B6H   SFRSYM    DATA     BYTE      IP2H
      000000A8H   SFRSYM    DATA     BYTE      IE
      000000BBH   SFRSYM    DATA     BYTE      P_SW3
      000000BAH   SFRSYM    DATA     BYTE      P_SW2
      000000A2H   SFRSYM    DATA     BYTE      P_SW1
      000000CEH   SFRSYM    DATA     BYTE      SPCTL
      000000F8H   SFRSYM    DATA     BYTE      P7
      000000E8H   SFRSYM    DATA     BYTE      P6
      000000C8H   SFRSYM    DATA     BYTE      P5
      000000C0H   SFRSYM    DATA     BYTE      P4
      000000C9H   SFRSYM    DATA     BYTE      P5M1
      000000B0H   SFRSYM    DATA     BYTE      P3
      000000CAH   SFRSYM    DATA     BYTE      P5M0
      000000A0H   SFRSYM    DATA     BYTE      P2
      00000090H   SFRSYM    DATA     BYTE      P1
      00000080H   SFRSYM    DATA     BYTE      P0

      00FF7FFBH   BLOCK     CODE     ---       LVL=0
      00000DF0H   SYMBOL    EDATA    INT       uart_n
      00000DF2H   SYMBOL    EDATA    INT       uart_rx_pin
      00000DF4H   SYMBOL    EDATA    INT       uart_tx_pin
      00000DF6H   SYMBOL    EDATA    DWORD     baud
      00000DFAH   SYMBOL    EDATA    INT       tim_n
      00FF800BH   BLOCK     CODE     NEAR LAB  LVL=1
      00000DFCH   SYMBOL    EDATA    WORD      brt
      ---         BLOCKEND  ---      ---       LVL=1
      00FF7FFBH   LINE      CODE     ---       #45
L251 LINKER/LOCATER V4.66.93.0                                                        07/15/2024  23:31:17  PAGE 62


      00FF800BH   LINE      CODE     ---       #46
      00FF800BH   LINE      CODE     ---       #49
      00FF8032H   LINE      CODE     ---       #52
      00FF8054H   LINE      CODE     ---       #54
      00FF8054H   LINE      CODE     ---       #56
      00FF8060H   LINE      CODE     ---       #58
      00FF8063H   LINE      CODE     ---       #59
      00FF8067H   LINE      CODE     ---       #60
      00FF806DH   LINE      CODE     ---       #61
      00FF8077H   LINE      CODE     ---       #62
      00FF807AH   LINE      CODE     ---       #63
      00FF807DH   LINE      CODE     ---       #64
      00FF8082H   LINE      CODE     ---       #65
      00FF8084H   LINE      CODE     ---       #66
      00FF8090H   LINE      CODE     ---       #68
      00FF8093H   LINE      CODE     ---       #69
      00FF8099H   LINE      CODE     ---       #70
      00FF80A3H   LINE      CODE     ---       #71
      00FF80A6H   LINE      CODE     ---       #72
      00FF80A6H   LINE      CODE     ---       #73
      00FF80A9H   LINE      CODE     ---       #74
      00FF80BFH   LINE      CODE     ---       #76
      00FF80C3H   LINE      CODE     ---       #77
      00FF80C5H   LINE      CODE     ---       #78
      00FF80DDH   LINE      CODE     ---       #80
      00FF80E0H   LINE      CODE     ---       #81
      00FF80E2H   LINE      CODE     ---       #82
      00FF80FAH   LINE      CODE     ---       #84
      00FF80FDH   LINE      CODE     ---       #85
      00FF80FFH   LINE      CODE     ---       #86
      00FF8117H   LINE      CODE     ---       #88
      00FF811AH   LINE      CODE     ---       #89
      00FF811AH   LINE      CODE     ---       #90
      00FF811FH   LINE      CODE     ---       #91
      00FF8122H   LINE      CODE     ---       #92
      00FF8125H   LINE      CODE     ---       #95
      00FF8125H   LINE      CODE     ---       #97
      00FF8131H   LINE      CODE     ---       #99
      00FF8134H   LINE      CODE     ---       #100
      00FF813AH   LINE      CODE     ---       #101
      00FF8144H   LINE      CODE     ---       #102
      00FF8147H   LINE      CODE     ---       #103
      00FF8147H   LINE      CODE     ---       #105
      00FF814AH   LINE      CODE     ---       #106
      00FF8162H   LINE      CODE     ---       #108
      00FF8166H   LINE      CODE     ---       #109
      00FF8168H   LINE      CODE     ---       #110
      00FF8180H   LINE      CODE     ---       #112
      00FF8183H   LINE      CODE     ---       #113
      00FF8183H   LINE      CODE     ---       #115
      00FF8186H   LINE      CODE     ---       #116
      00FF818BH   LINE      CODE     ---       #117
      00FF818EH   LINE      CODE     ---       #120
      00FF818EH   LINE      CODE     ---       #122
      00FF819AH   LINE      CODE     ---       #124
      00FF819DH   LINE      CODE     ---       #125
      00FF81A3H   LINE      CODE     ---       #126
      00FF81ADH   LINE      CODE     ---       #127
      00FF81B0H   LINE      CODE     ---       #128
      00FF81B2H   LINE      CODE     ---       #129
      00FF81BEH   LINE      CODE     ---       #131
      00FF81C1H   LINE      CODE     ---       #132
      00FF81C7H   LINE      CODE     ---       #133
      00FF81D1H   LINE      CODE     ---       #134
      00FF81D4H   LINE      CODE     ---       #135
L251 LINKER/LOCATER V4.66.93.0                                                        07/15/2024  23:31:17  PAGE 63


      00FF81D4H   LINE      CODE     ---       #137
      00FF81D7H   LINE      CODE     ---       #138
      00FF81EFH   LINE      CODE     ---       #140
      00FF81F3H   LINE      CODE     ---       #141
      00FF81F5H   LINE      CODE     ---       #142
      00FF820DH   LINE      CODE     ---       #144
      00FF8210H   LINE      CODE     ---       #145
      00FF8210H   LINE      CODE     ---       #147
      00FF8213H   LINE      CODE     ---       #148
      00FF8218H   LINE      CODE     ---       #149
      00FF821BH   LINE      CODE     ---       #152
      00FF821BH   LINE      CODE     ---       #154
      00FF8227H   LINE      CODE     ---       #156
      00FF822AH   LINE      CODE     ---       #157
      00FF8230H   LINE      CODE     ---       #158
      00FF823AH   LINE      CODE     ---       #159
      00FF823EH   LINE      CODE     ---       #160
      00FF8240H   LINE      CODE     ---       #161
      00FF824CH   LINE      CODE     ---       #163
      00FF824FH   LINE      CODE     ---       #164
      00FF8255H   LINE      CODE     ---       #165
      00FF825FH   LINE      CODE     ---       #166
      00FF8262H   LINE      CODE     ---       #167
      00FF8262H   LINE      CODE     ---       #169
      00FF8265H   LINE      CODE     ---       #170
      00FF827DH   LINE      CODE     ---       #172
      00FF8281H   LINE      CODE     ---       #173
      00FF8283H   LINE      CODE     ---       #174
      00FF829BH   LINE      CODE     ---       #176
      00FF829EH   LINE      CODE     ---       #177
      00FF82A2H   LINE      CODE     ---       #178
      00FF82A5H   LINE      CODE     ---       #179
      00FF82A5H   LINE      CODE     ---       #180
      00FF82A8H   LINE      CODE     ---       #181
      00FF82ADH   LINE      CODE     ---       #182
      00FF82ADH   LINE      CODE     ---       #185
      00FF82ADH   LINE      CODE     ---       #187
      ---         BLOCKEND  ---      ---       LVL=0

      00FF9964H   BLOCK     CODE     ---       LVL=0
      00001379H   SYMBOL    EDATA    INT       uart_n
      0000137BH   SYMBOL    EDATA    BYTE      dat
      00FF9964H   LINE      CODE     ---       #196
      00FF996CH   LINE      CODE     ---       #198
      00FF997EH   LINE      CODE     ---       #200
      00FF997EH   LINE      CODE     ---       #201
      00FF9987H   LINE      CODE     ---       #202
      00FF998DH   LINE      CODE     ---       #203
      00FF9993H   LINE      CODE     ---       #204
      00FF9995H   LINE      CODE     ---       #205
      00FF9995H   LINE      CODE     ---       #206
      00FF999EH   LINE      CODE     ---       #207
      00FF99A4H   LINE      CODE     ---       #208
      00FF99AAH   LINE      CODE     ---       #209
      00FF99ACH   LINE      CODE     ---       #210
      00FF99ACH   LINE      CODE     ---       #211
      00FF99B5H   LINE      CODE     ---       #212
      00FF99BBH   LINE      CODE     ---       #213
      00FF99C1H   LINE      CODE     ---       #214
      00FF99C3H   LINE      CODE     ---       #215
      00FF99C3H   LINE      CODE     ---       #216
      00FF99CCH   LINE      CODE     ---       #217
      00FF99D2H   LINE      CODE     ---       #218
      00FF99D8H   LINE      CODE     ---       #219
      00FF99D8H   LINE      CODE     ---       #220
L251 LINKER/LOCATER V4.66.93.0                                                        07/15/2024  23:31:17  PAGE 64


      00FF99D8H   LINE      CODE     ---       #221
      ---         BLOCKEND  ---      ---       LVL=0
      00000F9BH   SYMBOL    EDATA    INT       uart_n
      00000F9DH   SYMBOL    EDATA    ---       p
      00000FA1H   SYMBOL    EDATA    DWORD     len
      00001235H   SYMBOL    EDATA    INT       uart_n
      00001237H   SYMBOL    EDATA    ---       str

      ---         MODULE    ---      ---       zf_fifo
      00FF795DH   PUBLIC    CODE     ---       fifo_write_buffer
      00000D16H   PUBLIC    EDATA    BYTE      ?fifo_write_buffer?BYTE
      00000E6BH   PUBLIC    EDATA    BYTE      ?fifo_read_element?BYTE
      00000C6BH   PUBLIC    EDATA    BYTE      ?fifo_read_buffer?BYTE
      00000C83H   PUBLIC    EDATA    BYTE      ?fifo_read_tail_buffer?BYTE
      00000D92H   PUBLIC    EDATA    BYTE      ?fifo_init?BYTE
      000000D0H   SFRSYM    DATA     BYTE      PSW
      0000009DH   SFRSYM    DATA     BYTE      IRCBAND
      00000097H   SFRSYM    DATA     BYTE      AUXR2
      000000EFH   SFRSYM    DATA     BYTE      AUXINTIF
      000000FDH   SFRSYM    DATA     BYTE      S4CON
      000000ACH   SFRSYM    DATA     BYTE      S3CON
      0000009AH   SFRSYM    DATA     BYTE      S2CON
      000000B7H   SFRSYM    DATA     BYTE      IPH
      000000CDH   SFRSYM    DATA     BYTE      SPSTAT
      000000DDH   SFRSYM    DATA     BYTE      T4T3M
      000000C1H   SFRSYM    DATA     BYTE      WDT_CONTR
      000000DFH   SFRSYM    DATA     BYTE      IP3
      000000F4H   SFRSYM    DATA     BYTE      USBCON
      000000B5H   SFRSYM    DATA     BYTE      IP2
      000000FFH   SFRSYM    DATA     BYTE      RSTCFG
      000000C7H   SFRSYM    DATA     BYTE      IAP_CONTR
      000000F9H   SFRSYM    DATA     BYTE      LINICR
      0000008EH   SFRSYM    DATA     BYTE      AUXR
      000000AFH   SFRSYM    DATA     BYTE      IE2
      00000088H   SFRSYM    DATA     BYTE      TCON
      00000089H   SFRSYM    DATA     BYTE      TMOD
      00000098H   SFRSYM    DATA     BYTE      SCON
      000000F1H   SFRSYM    DATA     BYTE      CANICR
      00000087H   SFRSYM    DATA     BYTE      PCON
      000000BCH   SFRSYM    DATA     BYTE      ADC_CONTR
      000000E7H   SFRSYM    DATA     BYTE      CMPCR2
      000000E6H   SFRSYM    DATA     BYTE      CMPCR1
      000000DEH   SFRSYM    DATA     BYTE      ADCCFG
      000000B8H   SFRSYM    DATA     BYTE      IP
      0000008FH   SFRSYM    DATA     BYTE      INTCLKO
      000000EEH   SFRSYM    DATA     BYTE      IP3H
      000000B6H   SFRSYM    DATA     BYTE      IP2H
      000000A8H   SFRSYM    DATA     BYTE      IE
      000000BBH   SFRSYM    DATA     BYTE      P_SW3
      000000BAH   SFRSYM    DATA     BYTE      P_SW2
      000000A2H   SFRSYM    DATA     BYTE      P_SW1
      000000CEH   SFRSYM    DATA     BYTE      SPCTL
      000000F8H   SFRSYM    DATA     BYTE      P7
      000000E8H   SFRSYM    DATA     BYTE      P6
      000000C8H   SFRSYM    DATA     BYTE      P5
      000000C0H   SFRSYM    DATA     BYTE      P4
      000000B0H   SFRSYM    DATA     BYTE      P3
      000000A0H   SFRSYM    DATA     BYTE      P2
      00000090H   SFRSYM    DATA     BYTE      P1
      00000080H   SFRSYM    DATA     BYTE      P0
      00FF99D9H   SYMBOL    CODE     ---       fifo_head_offset

      00FF99D9H   BLOCK     CODE     ---       LVL=0
      00001118H   SYMBOL    EDATA    ---       fifo
      0000111CH   SYMBOL    EDATA    DWORD     offset
L251 LINKER/LOCATER V4.66.93.0                                                        07/15/2024  23:31:17  PAGE 65


      00FF99D9H   LINE      CODE     ---       #42
      00FF99E1H   LINE      CODE     ---       #44
      00FF99FDH   LINE      CODE     ---       #46
      00FF99FFH   LINE      CODE     ---       #48
      00FF9A26H   LINE      CODE     ---       #49
      00FF9A48H   LINE      CODE     ---       #50
      ---         BLOCKEND  ---      ---       LVL=0
      00001120H   SYMBOL    EDATA    ---       fifo
      00001124H   SYMBOL    EDATA    DWORD     offset
      0000123BH   SYMBOL    EDATA    ---       fifo
      0000123FH   SYMBOL    EDATA    INT       return_state
      00001325H   SYMBOL    EDATA    ---       fifo
      00000FA5H   SYMBOL    EDATA    ---       fifo
      00000FA9H   SYMBOL    EDATA    DWORD     dat
      00000FADH   SYMBOL    EDATA    INT       return_state

      00FF795DH   BLOCK     CODE     ---       LVL=0
      00000D16H   SYMBOL    EDATA    ---       fifo
      00000D1AH   SYMBOL    EDATA    ---       dat
      00000D1EH   SYMBOL    EDATA    DWORD     length
      00FF7965H   BLOCK     CODE     NEAR LAB  LVL=1
      00000D22H   SYMBOL    EDATA    INT       return_state
      00000D24H   SYMBOL    EDATA    DWORD     temp_length
      ---         BLOCKEND  ---      ---       LVL=1
      00FF795DH   LINE      CODE     ---       #168
      00FF7965H   LINE      CODE     ---       #169
      00FF7965H   LINE      CODE     ---       #171
      00FF796BH   LINE      CODE     ---       #172
      00FF7971H   LINE      CODE     ---       #174
      00FF7971H   LINE      CODE     ---       #176
      00FF7979H   LINE      CODE     ---       #178
      00FF7981H   LINE      CODE     ---       #179
      00FF7984H   LINE      CODE     ---       #180
      00FF7984H   LINE      CODE     ---       #181
      00FF7999H   LINE      CODE     ---       #183
      00FF79A1H   LINE      CODE     ---       #184
      00FF79A4H   LINE      CODE     ---       #185
      00FF79A4H   LINE      CODE     ---       #186
      00FF79B2H   LINE      CODE     ---       #188
      00FF79CCH   LINE      CODE     ---       #190
      00FF79F0H   LINE      CODE     ---       #192
      00FF79FFH   LINE      CODE     ---       #194
      00FF7A1DH   LINE      CODE     ---       #196
      00FF7A1DH   LINE      CODE     ---       #198
      00FF7A4CH   LINE      CODE     ---       #201
      00FF7A57H   LINE      CODE     ---       #202
      00FF7A94H   LINE      CODE     ---       #206
      00FF7AA5H   LINE      CODE     ---       #207
      00FF7AA8H   LINE      CODE     ---       #208
      00FF7AA8H   LINE      CODE     ---       #210
      00FF7ADBH   LINE      CODE     ---       #213
      00FF7AE6H   LINE      CODE     ---       #214
      00FF7B29H   LINE      CODE     ---       #218
      00FF7B3AH   LINE      CODE     ---       #219
      00FF7B3DH   LINE      CODE     ---       #220
      00FF7B3DH   LINE      CODE     ---       #222
      00FF7B74H   LINE      CODE     ---       #225
      00FF7B7FH   LINE      CODE     ---       #226
      00FF7BC8H   LINE      CODE     ---       #230
      00FF7BD9H   LINE      CODE     ---       #231
      00FF7BD9H   LINE      CODE     ---       #232
      00FF7BD9H   LINE      CODE     ---       #233
      00FF7BDCH   LINE      CODE     ---       #236
      00FF7BF7H   LINE      CODE     ---       #238
      00FF7BF7H   LINE      CODE     ---       #240
L251 LINKER/LOCATER V4.66.93.0                                                        07/15/2024  23:31:17  PAGE 66


      00FF7C26H   LINE      CODE     ---       #243
      00FF7C31H   LINE      CODE     ---       #244
      00FF7C34H   LINE      CODE     ---       #245
      00FF7C34H   LINE      CODE     ---       #247
      00FF7C67H   LINE      CODE     ---       #250
      00FF7C72H   LINE      CODE     ---       #251
      00FF7C74H   LINE      CODE     ---       #252
      00FF7C74H   LINE      CODE     ---       #254
      00FF7CABH   LINE      CODE     ---       #257
      00FF7CB6H   LINE      CODE     ---       #258
      00FF7CB6H   LINE      CODE     ---       #259
      00FF7CB6H   LINE      CODE     ---       #260
      00FF7CB6H   LINE      CODE     ---       #262
      00FF7CD2H   LINE      CODE     ---       #263
      00FF7CD4H   LINE      CODE     ---       #266
      00FF7CDCH   LINE      CODE     ---       #267
      00FF7CDCH   LINE      CODE     ---       #268
      00FF7CEAH   LINE      CODE     ---       #269
      00FF7CEAH   LINE      CODE     ---       #271
      00FF7CEEH   LINE      CODE     ---       #272
      ---         BLOCKEND  ---      ---       LVL=0
      00000E6BH   SYMBOL    EDATA    ---       fifo
      00000E6FH   SYMBOL    EDATA    ---       dat
      00000E73H   SYMBOL    EDATA    INT       flag
      00000E75H   SYMBOL    EDATA    INT       return_state
      00000C6BH   SYMBOL    EDATA    ---       fifo
      00000C6FH   SYMBOL    EDATA    ---       dat
      00000C73H   SYMBOL    EDATA    ---       length
      00000C77H   SYMBOL    EDATA    INT       flag
      00000C79H   SYMBOL    EDATA    INT       return_state
      00000C7BH   SYMBOL    EDATA    DWORD     temp_length
      00000C7FH   SYMBOL    EDATA    DWORD     fifo_data_length
      00000C83H   SYMBOL    EDATA    ---       fifo
      00000C87H   SYMBOL    EDATA    ---       dat
      00000C8BH   SYMBOL    EDATA    ---       length
      00000C8FH   SYMBOL    EDATA    INT       flag
      00000C91H   SYMBOL    EDATA    INT       return_state
      00000C93H   SYMBOL    EDATA    DWORD     temp_length
      00000C97H   SYMBOL    EDATA    DWORD     fifo_data_length
      00000D92H   SYMBOL    EDATA    ---       fifo
      00000D96H   SYMBOL    EDATA    INT       type
      00000D98H   SYMBOL    EDATA    ---       buffer_addr
      00000D9CH   SYMBOL    EDATA    DWORD     len
      00000DA0H   SYMBOL    EDATA    INT       return_state

      ---         MODULE    ---      ---       SEEKFREE_18TFT
      0000085FH   PUBLIC    EDATA    BYTE      ?lcd_showfloat_simspi?BYTE
      0000088FH   PUBLIC    EDATA    BYTE      ?lcd_showfloat?BYTE
      000000D0H   SFRSYM    DATA     BYTE      PSW
      0000009DH   SFRSYM    DATA     BYTE      IRCBAND
      00000097H   SFRSYM    DATA     BYTE      AUXR2
      000000EFH   SFRSYM    DATA     BYTE      AUXINTIF
      000000FDH   SFRSYM    DATA     BYTE      S4CON
      000000ACH   SFRSYM    DATA     BYTE      S3CON
      0000009AH   SFRSYM    DATA     BYTE      S2CON
      000000B7H   SFRSYM    DATA     BYTE      IPH
      000000CDH   SFRSYM    DATA     BYTE      SPSTAT
      000000DDH   SFRSYM    DATA     BYTE      T4T3M
      000000C1H   SFRSYM    DATA     BYTE      WDT_CONTR
      000000DFH   SFRSYM    DATA     BYTE      IP3
      000000F4H   SFRSYM    DATA     BYTE      USBCON
      000000B5H   SFRSYM    DATA     BYTE      IP2
      000000FFH   SFRSYM    DATA     BYTE      RSTCFG
      000000C7H   SFRSYM    DATA     BYTE      IAP_CONTR
      000000F9H   SFRSYM    DATA     BYTE      LINICR
L251 LINKER/LOCATER V4.66.93.0                                                        07/15/2024  23:31:17  PAGE 67


      0000008EH   SFRSYM    DATA     BYTE      AUXR
      000000AFH   SFRSYM    DATA     BYTE      IE2
      000000A0H.5 SFRSYM    DATA     BIT       P25
      00000088H   SFRSYM    DATA     BYTE      TCON
      00000089H   SFRSYM    DATA     BYTE      TMOD
      000000A0H.3 SFRSYM    DATA     BIT       P23
      00000098H   SFRSYM    DATA     BYTE      SCON
      000000A0H.2 SFRSYM    DATA     BIT       P22
      000000A0H.1 SFRSYM    DATA     BIT       P21
      000000A0H.0 SFRSYM    DATA     BIT       P20
      000000F1H   SFRSYM    DATA     BYTE      CANICR
      00000087H   SFRSYM    DATA     BYTE      PCON
      000000BCH   SFRSYM    DATA     BYTE      ADC_CONTR
      000000E7H   SFRSYM    DATA     BYTE      CMPCR2
      000000E6H   SFRSYM    DATA     BYTE      CMPCR1
      000000DEH   SFRSYM    DATA     BYTE      ADCCFG
      000000B8H   SFRSYM    DATA     BYTE      IP
      0000008FH   SFRSYM    DATA     BYTE      INTCLKO
      000000EEH   SFRSYM    DATA     BYTE      IP3H
      000000B6H   SFRSYM    DATA     BYTE      IP2H
      000000A8H   SFRSYM    DATA     BYTE      IE
      000000BBH   SFRSYM    DATA     BYTE      P_SW3
      000000BAH   SFRSYM    DATA     BYTE      P_SW2
      000000A2H   SFRSYM    DATA     BYTE      P_SW1
      000000CEH   SFRSYM    DATA     BYTE      SPCTL
      000000F8H   SFRSYM    DATA     BYTE      P7
      000000E8H   SFRSYM    DATA     BYTE      P6
      000000C8H   SFRSYM    DATA     BYTE      P5
      000000C0H   SFRSYM    DATA     BYTE      P4
      000000B0H   SFRSYM    DATA     BYTE      P3
      000000A0H   SFRSYM    DATA     BYTE      P2
      00000090H   SFRSYM    DATA     BYTE      P1
      00000080H   SFRSYM    DATA     BYTE      P0
      000013C3H   SYMBOL    EDATA    BYTE      dat
      000013C4H   SYMBOL    EDATA    BYTE      i
      000013C5H   SYMBOL    EDATA    BYTE      dat
      000013C6H   SYMBOL    EDATA    BYTE      i
      0000137CH   SYMBOL    EDATA    WORD      dat
      0000137EH   SYMBOL    EDATA    BYTE      i
      00001128H   SYMBOL    EDATA    WORD      x_start
      0000112AH   SYMBOL    EDATA    WORD      y_start
      0000112CH   SYMBOL    EDATA    WORD      x_end
      0000112EH   SYMBOL    EDATA    WORD      y_end
      00001329H   SYMBOL    EDATA    INT       color
      0000132BH   SYMBOL    EDATA    BYTE      i
      0000132CH   SYMBOL    EDATA    BYTE      j
      00001241H   SYMBOL    EDATA    WORD      x
      00001243H   SYMBOL    EDATA    WORD      y
      00001245H   SYMBOL    EDATA    WORD      color
      00001130H   SYMBOL    EDATA    WORD      x
      00001132H   SYMBOL    EDATA    WORD      y
      00001134H   SYMBOL    EDATA    CHAR      dat
      00001135H   SYMBOL    EDATA    BYTE      i
      00001136H   SYMBOL    EDATA    BYTE      j
      00001137H   SYMBOL    EDATA    BYTE      temp
      00000FAFH   SYMBOL    EDATA    WORD      x
      00000FB1H   SYMBOL    EDATA    WORD      y
      00000FB3H   SYMBOL    EDATA    ---       dat
      00000FB7H   SYMBOL    EDATA    WORD      j
      0000101DH   SYMBOL    EDATA    WORD      x
      0000101FH   SYMBOL    EDATA    WORD      y
      00001021H   SYMBOL    EDATA    CHAR      dat
      00001022H   SYMBOL    EDATA    ---       a
      00001025H   SYMBOL    EDATA    BYTE      i
      00001026H   SYMBOL    EDATA    WORD      x
L251 LINKER/LOCATER V4.66.93.0                                                        07/15/2024  23:31:17  PAGE 68


      00001028H   SYMBOL    EDATA    WORD      y
      0000102AH   SYMBOL    EDATA    BYTE      dat
      0000102BH   SYMBOL    EDATA    ---       a
      0000102EH   SYMBOL    EDATA    BYTE      i
      00000E77H   SYMBOL    EDATA    WORD      x
      00000E79H   SYMBOL    EDATA    WORD      y
      00000E7BH   SYMBOL    EDATA    INT       dat
      00000E7DH   SYMBOL    EDATA    ---       a
      00000E82H   SYMBOL    EDATA    BYTE      i
      00000E83H   SYMBOL    EDATA    WORD      x
      00000E85H   SYMBOL    EDATA    WORD      y
      00000E87H   SYMBOL    EDATA    WORD      dat
      00000E89H   SYMBOL    EDATA    ---       a
      00000E8EH   SYMBOL    EDATA    BYTE      i
      000009AEH   SYMBOL    EDATA    WORD      x
      000009B0H   SYMBOL    EDATA    WORD      y
      000009B2H   SYMBOL    EDATA    LONG      dat
      000009B6H   SYMBOL    EDATA    BYTE      num
      000009B7H   SYMBOL    EDATA    ---       buff
      000009D9H   SYMBOL    EDATA    BYTE      length
      0000085FH   SYMBOL    EDATA    WORD      x
      00000861H   SYMBOL    EDATA    WORD      y
      00000863H   SYMBOL    EDATA    FLOAT     dat
      00000867H   SYMBOL    EDATA    BYTE      num
      00000868H   SYMBOL    EDATA    BYTE      pointnum
      00000869H   SYMBOL    EDATA    BYTE      length
      0000086AH   SYMBOL    EDATA    ---       buff
      0000088CH   SYMBOL    EDATA    CHAR      start
      0000088DH   SYMBOL    EDATA    CHAR      end
      0000088EH   SYMBOL    EDATA    CHAR      point
      0000141FH   SYMBOL    EDATA    BYTE      dat
      00001420H   SYMBOL    EDATA    BYTE      dat
      0000132DH   SYMBOL    EDATA    WORD      dat
      0000132FH   SYMBOL    EDATA    ---       dat1
      00001138H   SYMBOL    EDATA    WORD      x_start
      0000113AH   SYMBOL    EDATA    WORD      y_start
      0000113CH   SYMBOL    EDATA    WORD      x_end
      0000113EH   SYMBOL    EDATA    WORD      y_end
      00001331H   SYMBOL    EDATA    INT       color
      00001333H   SYMBOL    EDATA    BYTE      i
      00001334H   SYMBOL    EDATA    BYTE      j
      00001247H   SYMBOL    EDATA    WORD      x
      00001249H   SYMBOL    EDATA    WORD      y
      0000124BH   SYMBOL    EDATA    WORD      color
      00001140H   SYMBOL    EDATA    WORD      x
      00001142H   SYMBOL    EDATA    WORD      y
      00001144H   SYMBOL    EDATA    CHAR      dat
      00001145H   SYMBOL    EDATA    BYTE      i
      00001146H   SYMBOL    EDATA    BYTE      j
      00001147H   SYMBOL    EDATA    BYTE      temp
      00000FB9H   SYMBOL    EDATA    WORD      x
      00000FBBH   SYMBOL    EDATA    WORD      y
      00000FBDH   SYMBOL    EDATA    ---       dat
      00000FC1H   SYMBOL    EDATA    WORD      j
      0000102FH   SYMBOL    EDATA    WORD      x
      00001031H   SYMBOL    EDATA    WORD      y
      00001033H   SYMBOL    EDATA    CHAR      dat
      00001034H   SYMBOL    EDATA    ---       a
      00001037H   SYMBOL    EDATA    BYTE      i
      00001038H   SYMBOL    EDATA    WORD      x
      0000103AH   SYMBOL    EDATA    WORD      y
      0000103CH   SYMBOL    EDATA    BYTE      dat
      0000103DH   SYMBOL    EDATA    ---       a
      00001040H   SYMBOL    EDATA    BYTE      i
      00000E8FH   SYMBOL    EDATA    WORD      x
L251 LINKER/LOCATER V4.66.93.0                                                        07/15/2024  23:31:17  PAGE 69


      00000E91H   SYMBOL    EDATA    WORD      y
      00000E93H   SYMBOL    EDATA    INT       dat
      00000E95H   SYMBOL    EDATA    ---       a
      00000E9AH   SYMBOL    EDATA    BYTE      i
      00000E9BH   SYMBOL    EDATA    WORD      x
      00000E9DH   SYMBOL    EDATA    WORD      y
      00000E9FH   SYMBOL    EDATA    WORD      dat
      00000EA1H   SYMBOL    EDATA    ---       a
      00000EA6H   SYMBOL    EDATA    BYTE      i
      000009DAH   SYMBOL    EDATA    WORD      x
      000009DCH   SYMBOL    EDATA    WORD      y
      000009DEH   SYMBOL    EDATA    LONG      dat
      000009E2H   SYMBOL    EDATA    BYTE      num
      000009E3H   SYMBOL    EDATA    ---       buff
      00000A05H   SYMBOL    EDATA    BYTE      length
      0000088FH   SYMBOL    EDATA    WORD      x
      00000891H   SYMBOL    EDATA    WORD      y
      00000893H   SYMBOL    EDATA    FLOAT     dat
      00000897H   SYMBOL    EDATA    BYTE      num
      00000898H   SYMBOL    EDATA    BYTE      pointnum
      00000899H   SYMBOL    EDATA    BYTE      length
      0000089AH   SYMBOL    EDATA    ---       buff
      000008BCH   SYMBOL    EDATA    CHAR      start
      000008BDH   SYMBOL    EDATA    CHAR      end
      000008BEH   SYMBOL    EDATA    CHAR      point
      00000EA7H   SYMBOL    EDATA    ---       p
      00000EABH   SYMBOL    EDATA    INT       i
      00000EADH   SYMBOL    EDATA    INT       j
      00000EAFH   SYMBOL    EDATA    INT       k
      00000EB1H   SYMBOL    EDATA    BYTE      picH
      00000EB2H   SYMBOL    EDATA    BYTE      picL

      ---         MODULE    ---      ---       SEEKFREE_ABSOLUTE_ENCODER
      000000D0H   SFRSYM    DATA     BYTE      PSW
      0000009DH   SFRSYM    DATA     BYTE      IRCBAND
      00000097H   SFRSYM    DATA     BYTE      AUXR2
      000000EFH   SFRSYM    DATA     BYTE      AUXINTIF
      000000FDH   SFRSYM    DATA     BYTE      S4CON
      000000ACH   SFRSYM    DATA     BYTE      S3CON
      0000009AH   SFRSYM    DATA     BYTE      S2CON
      000000B7H   SFRSYM    DATA     BYTE      IPH
      000000CDH   SFRSYM    DATA     BYTE      SPSTAT
      000000DDH   SFRSYM    DATA     BYTE      T4T3M
      000000C1H   SFRSYM    DATA     BYTE      WDT_CONTR
      000000DFH   SFRSYM    DATA     BYTE      IP3
      000000F4H   SFRSYM    DATA     BYTE      USBCON
      000000B5H   SFRSYM    DATA     BYTE      IP2
      000000FFH   SFRSYM    DATA     BYTE      RSTCFG
      000000C7H   SFRSYM    DATA     BYTE      IAP_CONTR
      000000F9H   SFRSYM    DATA     BYTE      LINICR
      0000008EH   SFRSYM    DATA     BYTE      AUXR
      000000AFH   SFRSYM    DATA     BYTE      IE2
      000000A0H.7 SFRSYM    DATA     BIT       P27
      000000A0H.6 SFRSYM    DATA     BIT       P26
      000000A0H.5 SFRSYM    DATA     BIT       P25
      000000A0H.4 SFRSYM    DATA     BIT       P24
      00000088H   SFRSYM    DATA     BYTE      TCON
      00000089H   SFRSYM    DATA     BYTE      TMOD
      00000098H   SFRSYM    DATA     BYTE      SCON
      000000A0H.2 SFRSYM    DATA     BIT       P22
      000000F1H   SFRSYM    DATA     BYTE      CANICR
      00000087H   SFRSYM    DATA     BYTE      PCON
      000000BCH   SFRSYM    DATA     BYTE      ADC_CONTR
      000000E7H   SFRSYM    DATA     BYTE      CMPCR2
      000000E6H   SFRSYM    DATA     BYTE      CMPCR1
L251 LINKER/LOCATER V4.66.93.0                                                        07/15/2024  23:31:17  PAGE 70


      000000DEH   SFRSYM    DATA     BYTE      ADCCFG
      000000B8H   SFRSYM    DATA     BYTE      IP
      0000008FH   SFRSYM    DATA     BYTE      INTCLKO
      000000EEH   SFRSYM    DATA     BYTE      IP3H
      000000B6H   SFRSYM    DATA     BYTE      IP2H
      000000A8H   SFRSYM    DATA     BYTE      IE
      000000BBH   SFRSYM    DATA     BYTE      P_SW3
      000000BAH   SFRSYM    DATA     BYTE      P_SW2
      000000A2H   SFRSYM    DATA     BYTE      P_SW1
      000000CEH   SFRSYM    DATA     BYTE      SPCTL
      000000F8H   SFRSYM    DATA     BYTE      P7
      000000E8H   SFRSYM    DATA     BYTE      P6
      000000C8H   SFRSYM    DATA     BYTE      P5
      000000C0H   SFRSYM    DATA     BYTE      P4
      000000B0H   SFRSYM    DATA     BYTE      P3
      000000A0H   SFRSYM    DATA     BYTE      P2
      00000090H   SFRSYM    DATA     BYTE      P1
      00000080H   SFRSYM    DATA     BYTE      P0
      000013C7H   SYMBOL    EDATA    WORD      x
      000013C9H   SYMBOL    EDATA    BYTE      byte
      000013CAH   SYMBOL    EDATA    BYTE      i
      000013CBH   SYMBOL    EDATA    BYTE      cmd
      000013CCH   SYMBOL    EDATA    BYTE      val
      000012D0H   SYMBOL    EDATA    BYTE      cmd
      000012D1H   SYMBOL    EDATA    ---       val
      0000137FH   SYMBOL    EDATA    BYTE      cmd
      00001380H   SYMBOL    EDATA    BYTE      val
      00001381H   SYMBOL    EDATA    BYTE      dat
      000012D5H   SYMBOL    EDATA    BYTE      cmd
      000012D6H   SYMBOL    EDATA    ---       val
      000013CDH   SYMBOL    EDATA    WORD      zero_position
      000013CFH   SYMBOL    EDATA    WORD      angle
      00001421H   SYMBOL    EDATA    BYTE      val
      00001422H   SYMBOL    EDATA    BYTE      byte
      000013D1H   SYMBOL    EDATA    BYTE      cmd
      000013D2H   SYMBOL    EDATA    BYTE      val
      000012DAH   SYMBOL    EDATA    BYTE      cmd
      000012DBH   SYMBOL    EDATA    ---       val
      00001382H   SYMBOL    EDATA    BYTE      cmd
      00001383H   SYMBOL    EDATA    BYTE      val
      00001384H   SYMBOL    EDATA    BYTE      dat
      000012DFH   SYMBOL    EDATA    BYTE      cmd
      000012E0H   SYMBOL    EDATA    ---       val
      000013D3H   SYMBOL    EDATA    WORD      zero_position
      000013D5H   SYMBOL    EDATA    WORD      angle
      00001423H   SYMBOL    EDATA    BYTE      val

      ---         MODULE    ---      ---       SEEKFREE_BLUETOOTH_CH9141
      00FF0066H   PUBLIC    CODE     ---       bluetooth_ch9141_uart_callback
      000000D0H   SFRSYM    DATA     BYTE      PSW
      0000009DH   SFRSYM    DATA     BYTE      IRCBAND
      00000097H   SFRSYM    DATA     BYTE      AUXR2
      000000EFH   SFRSYM    DATA     BYTE      AUXINTIF
      000000FDH   SFRSYM    DATA     BYTE      S4CON
      000000ACH   SFRSYM    DATA     BYTE      S3CON
      0000009AH   SFRSYM    DATA     BYTE      S2CON
      000000FEH   SFRSYM    DATA     BYTE      S4BUF
      000000B7H   SFRSYM    DATA     BYTE      IPH
      000000CDH   SFRSYM    DATA     BYTE      SPSTAT
      000000DDH   SFRSYM    DATA     BYTE      T4T3M
      000000C1H   SFRSYM    DATA     BYTE      WDT_CONTR
      000000DFH   SFRSYM    DATA     BYTE      IP3
      000000F4H   SFRSYM    DATA     BYTE      USBCON
      000000B5H   SFRSYM    DATA     BYTE      IP2
      000000FFH   SFRSYM    DATA     BYTE      RSTCFG
L251 LINKER/LOCATER V4.66.93.0                                                        07/15/2024  23:31:17  PAGE 71


      000000C7H   SFRSYM    DATA     BYTE      IAP_CONTR
      000000F9H   SFRSYM    DATA     BYTE      LINICR
      0000008EH   SFRSYM    DATA     BYTE      AUXR
      000000AFH   SFRSYM    DATA     BYTE      IE2
      00000080H.7 SFRSYM    DATA     BIT       P07
      00000088H   SFRSYM    DATA     BYTE      TCON
      00000089H   SFRSYM    DATA     BYTE      TMOD
      00000098H   SFRSYM    DATA     BYTE      SCON
      000000F1H   SFRSYM    DATA     BYTE      CANICR
      00000087H   SFRSYM    DATA     BYTE      PCON
      000000BCH   SFRSYM    DATA     BYTE      ADC_CONTR
      000000E7H   SFRSYM    DATA     BYTE      CMPCR2
      000000E6H   SFRSYM    DATA     BYTE      CMPCR1
      000000DEH   SFRSYM    DATA     BYTE      ADCCFG
      000000B8H   SFRSYM    DATA     BYTE      IP
      0000008FH   SFRSYM    DATA     BYTE      INTCLKO
      000000EEH   SFRSYM    DATA     BYTE      IP3H
      000000B6H   SFRSYM    DATA     BYTE      IP2H
      000000A8H   SFRSYM    DATA     BYTE      IE
      000000BBH   SFRSYM    DATA     BYTE      P_SW3
      000000BAH   SFRSYM    DATA     BYTE      P_SW2
      000000A2H   SFRSYM    DATA     BYTE      P_SW1
      000000CEH   SFRSYM    DATA     BYTE      SPCTL
      000000F8H   SFRSYM    DATA     BYTE      P7
      000000E8H   SFRSYM    DATA     BYTE      P6
      000000C8H   SFRSYM    DATA     BYTE      P5
      000000C0H   SFRSYM    DATA     BYTE      P4
      000000B0H   SFRSYM    DATA     BYTE      P3
      000000A0H   SFRSYM    DATA     BYTE      P2
      00000090H   SFRSYM    DATA     BYTE      P1
      00000080H   SFRSYM    DATA     BYTE      P0
      000006EBH   SYMBOL    EDATA    ---       bluetooth_ch9141_buffer
      0000072BH   SYMBOL    EDATA    BYTE      bluetooth_ch9141_data
      0000072CH   SYMBOL    EDATA    ---       bluetooth_ch9141_fifo

      00FF0066H   BLOCK     CODE     ---       LVL=0
      00FF0066H   LINE      CODE     ---       #67
      00FF0066H   LINE      CODE     ---       #70
      00FF006CH   LINE      CODE     ---       #71
      00FF007FH   LINE      CODE     ---       #72
      ---         BLOCKEND  ---      ---       LVL=0
      00000FC3H   SYMBOL    EDATA    ---       buff
      00000FC7H   SYMBOL    EDATA    DWORD     len
      00000FCBH   SYMBOL    EDATA    WORD      time_count
      00000EB3H   SYMBOL    EDATA    ---       buff
      00000EB7H   SYMBOL    EDATA    DWORD     len
      00000EBBH   SYMBOL    EDATA    DWORD     data_len

      ---         MODULE    ---      ---       SEEKFREE_DL1A
      00001385H   PUBLIC    EDATA    WORD      dl1a_distance_mm
      00001387H   PUBLIC    EDATA    BYTE      dl1a_finsh_flag
      000000D0H   SFRSYM    DATA     BYTE      PSW
      0000009DH   SFRSYM    DATA     BYTE      IRCBAND
      00000097H   SFRSYM    DATA     BYTE      AUXR2
      000000EFH   SFRSYM    DATA     BYTE      AUXINTIF
      000000FDH   SFRSYM    DATA     BYTE      S4CON
      000000ACH   SFRSYM    DATA     BYTE      S3CON
      0000009AH   SFRSYM    DATA     BYTE      S2CON
      000000B7H   SFRSYM    DATA     BYTE      IPH
      000000CDH   SFRSYM    DATA     BYTE      SPSTAT
      000000DDH   SFRSYM    DATA     BYTE      T4T3M
      000000C1H   SFRSYM    DATA     BYTE      WDT_CONTR
      000000DFH   SFRSYM    DATA     BYTE      IP3
      000000F4H   SFRSYM    DATA     BYTE      USBCON
      000000B5H   SFRSYM    DATA     BYTE      IP2
L251 LINKER/LOCATER V4.66.93.0                                                        07/15/2024  23:31:17  PAGE 72


      000000FFH   SFRSYM    DATA     BYTE      RSTCFG
      000000C7H   SFRSYM    DATA     BYTE      IAP_CONTR
      000000F9H   SFRSYM    DATA     BYTE      LINICR
      0000008EH   SFRSYM    DATA     BYTE      AUXR
      000000AFH   SFRSYM    DATA     BYTE      IE2
      000000B0H.7 SFRSYM    DATA     BIT       P37
      000000B0H.6 SFRSYM    DATA     BIT       P36
      000000C8H.2 SFRSYM    DATA     BIT       P52
      00000088H   SFRSYM    DATA     BYTE      TCON
      00000089H   SFRSYM    DATA     BYTE      TMOD
      00000098H   SFRSYM    DATA     BYTE      SCON
      000000F1H   SFRSYM    DATA     BYTE      CANICR
      00000087H   SFRSYM    DATA     BYTE      PCON
      000000BCH   SFRSYM    DATA     BYTE      ADC_CONTR
      000000E7H   SFRSYM    DATA     BYTE      CMPCR2
      000000E6H   SFRSYM    DATA     BYTE      CMPCR1
      000000DEH   SFRSYM    DATA     BYTE      ADCCFG
      000000B8H   SFRSYM    DATA     BYTE      IP
      0000008FH   SFRSYM    DATA     BYTE      INTCLKO
      000000EEH   SFRSYM    DATA     BYTE      IP3H
      000000B6H   SFRSYM    DATA     BYTE      IP2H
      000000A8H   SFRSYM    DATA     BYTE      IE
      000000BBH   SFRSYM    DATA     BYTE      P_SW3
      000000BAH   SFRSYM    DATA     BYTE      P_SW2
      000000A2H   SFRSYM    DATA     BYTE      P_SW1
      000000CEH   SFRSYM    DATA     BYTE      SPCTL
      000000F8H   SFRSYM    DATA     BYTE      P7
      000000E8H   SFRSYM    DATA     BYTE      P6
      000000C8H   SFRSYM    DATA     BYTE      P5
      000000C0H   SFRSYM    DATA     BYTE      P4
      000000B0H   SFRSYM    DATA     BYTE      P3
      000000A0H   SFRSYM    DATA     BYTE      P2
      00000090H   SFRSYM    DATA     BYTE      P1
      00000080H   SFRSYM    DATA     BYTE      P0
      000013D7H   SYMBOL    EDATA    WORD      j
      00001424H   SYMBOL    EDATA    BYTE      ack_dat
      000013D9H   SYMBOL    EDATA    BYTE      c
      000013DAH   SYMBOL    EDATA    BYTE      i
      00001388H   SYMBOL    EDATA    BYTE      ack_x
      00001389H   SYMBOL    EDATA    BYTE      i
      0000138AH   SYMBOL    EDATA    BYTE      c
      00001041H   SYMBOL    EDATA    BYTE      dev_add
      00001042H   SYMBOL    EDATA    ---       dat
      00001046H   SYMBOL    EDATA    DWORD     len
      0000138BH   SYMBOL    EDATA    BYTE      dev_add
      0000138CH   SYMBOL    EDATA    BYTE      reg
      0000138DH   SYMBOL    EDATA    BYTE      dat
      0000138EH   SYMBOL    EDATA    BYTE      dev_add
      0000138FH   SYMBOL    EDATA    BYTE      reg
      00001390H   SYMBOL    EDATA    BYTE      dat
      00000FCDH   SYMBOL    EDATA    BYTE      dev_add
      00000FCEH   SYMBOL    EDATA    BYTE      reg
      00000FCFH   SYMBOL    EDATA    ---       dat_add
      00000FD3H   SYMBOL    EDATA    DWORD     num
      00000FD7H   SYMBOL    EDATA    BYTE      dev_add
      00000FD8H   SYMBOL    EDATA    BYTE      reg
      00000FD9H   SYMBOL    EDATA    ---       dat_add
      00000FDDH   SYMBOL    EDATA    DWORD     num
      00000EBFH   SYMBOL    EDATA    ---       index
      00000EC3H   SYMBOL    EDATA    ---       type_is_aperture
      00000EC7H   SYMBOL    EDATA    BYTE      tmp
      00000EC8H   SYMBOL    EDATA    BYTE      return_state
      00000EC9H   SYMBOL    EDATA    WORD      loop_count
      000011E6H   SYMBOL    EDATA    WORD      timeout_period_mclks
      000011E8H   SYMBOL    EDATA    BYTE      vcsel_period_pclks
L251 LINKER/LOCATER V4.66.93.0                                                        07/15/2024  23:31:17  PAGE 73


      000011E9H   SYMBOL    EDATA    DWORD     macro_period_ns
      0000104AH   SYMBOL    EDATA    DWORD     timeout_period_us
      0000104EH   SYMBOL    EDATA    BYTE      vcsel_period_pclks
      0000104FH   SYMBOL    EDATA    DWORD     macro_period_ns
      000013DBH   SYMBOL    EDATA    WORD      reg_val
      00000FE1H   SYMBOL    EDATA    WORD      timeout_mclks
      00000FE3H   SYMBOL    EDATA    DWORD     ls_byte
      00000FE7H   SYMBOL    EDATA    WORD      ms_byte
      00000FE9H   SYMBOL    EDATA    WORD      return_data
      000012E4H   SYMBOL    EDATA    ---       enables
      000012E8H   SYMBOL    EDATA    BYTE      sequence_config
      00001391H   SYMBOL    EDATA    INT       type
      00001393H   SYMBOL    EDATA    BYTE      data_buffer
      00000ECBH   SYMBOL    EDATA    ---       enables
      00000ECFH   SYMBOL    EDATA    ---       timeouts
      00000ED3H   SYMBOL    EDATA    ---       reg_buffer
      00000ED5H   SYMBOL    EDATA    WORD      reg16_buffer
      000012E9H   SYMBOL    EDATA    BYTE      vhv_init_byte
      000012EAH   SYMBOL    EDATA    BYTE      return_state
      000012EBH   SYMBOL    EDATA    BYTE      data_buffer
      000012ECH   SYMBOL    EDATA    WORD      loop_count
      0000097FH   SYMBOL    EDATA    DWORD     budget_us
      00000983H   SYMBOL    EDATA    BYTE      return_state
      00000984H   SYMBOL    EDATA    ---       data_buffer
      00000987H   SYMBOL    EDATA    WORD      dat
      00000989H   SYMBOL    EDATA    DWORD     used_budget_us
      0000098DH   SYMBOL    EDATA    DWORD     final_range_timeout_us
      00000991H   SYMBOL    EDATA    WORD      final_range_timeout_mclks
      00000993H   SYMBOL    EDATA    ---       enables
      00000998H   SYMBOL    EDATA    ---       timeouts
      00000BC3H   SYMBOL    EDATA    ---       enables
      00000BC8H   SYMBOL    EDATA    ---       timeouts
      00000BDEH   SYMBOL    EDATA    DWORD     budget_us
      00001053H   SYMBOL    EDATA    FLOAT     limit_mcps
      00001057H   SYMBOL    EDATA    ---       data_buffer
      0000105AH   SYMBOL    EDATA    WORD      limit_mcps_16bit
      00001394H   SYMBOL    EDATA    ---       reg_databuffer
      00000CB1H   SYMBOL    EDATA    DWORD     measurement_timing_budget_us
      00000CB5H   SYMBOL    EDATA    BYTE      stop_variable
      00000CB6H   SYMBOL    EDATA    BYTE      return_state
      00000CB7H   SYMBOL    EDATA    BYTE      reg_data_buffer
      00000CB8H   SYMBOL    EDATA    ---       ref_spad_map
      00000CBEH   SYMBOL    EDATA    ---       data_buffer
      00000CC5H   SYMBOL    EDATA    BYTE      i

      ---         MODULE    ---      ---       SEEKFREE_DL1B
      00001335H   PUBLIC    EDATA    WORD      dl1b_distance_mm
      00001337H   PUBLIC    EDATA    BYTE      dl1b_finsh_flag
      00001338H   PUBLIC    EDATA    BYTE      dl1b_init_flag
      00000DA2H   PUBLIC    EDATA    BYTE      ?dl1b_iic_transfer_8bit_array?BYTE
      000000D0H   SFRSYM    DATA     BYTE      PSW
      0000009DH   SFRSYM    DATA     BYTE      IRCBAND
      00000097H   SFRSYM    DATA     BYTE      AUXR2
      000000EFH   SFRSYM    DATA     BYTE      AUXINTIF
      000000FDH   SFRSYM    DATA     BYTE      S4CON
      000000ACH   SFRSYM    DATA     BYTE      S3CON
      0000009AH   SFRSYM    DATA     BYTE      S2CON
      000000B7H   SFRSYM    DATA     BYTE      IPH
      000000CDH   SFRSYM    DATA     BYTE      SPSTAT
      000000DDH   SFRSYM    DATA     BYTE      T4T3M
      000000C1H   SFRSYM    DATA     BYTE      WDT_CONTR
      000000DFH   SFRSYM    DATA     BYTE      IP3
      000000F4H   SFRSYM    DATA     BYTE      USBCON
      000000B5H   SFRSYM    DATA     BYTE      IP2
      000000FFH   SFRSYM    DATA     BYTE      RSTCFG
L251 LINKER/LOCATER V4.66.93.0                                                        07/15/2024  23:31:17  PAGE 74


      000000C7H   SFRSYM    DATA     BYTE      IAP_CONTR
      000000F9H   SFRSYM    DATA     BYTE      LINICR
      0000008EH   SFRSYM    DATA     BYTE      AUXR
      000000AFH   SFRSYM    DATA     BYTE      IE2
      000000B0H.7 SFRSYM    DATA     BIT       P37
      000000B0H.6 SFRSYM    DATA     BIT       P36
      000000C8H.2 SFRSYM    DATA     BIT       P52
      00000088H   SFRSYM    DATA     BYTE      TCON
      00000089H   SFRSYM    DATA     BYTE      TMOD
      00000098H   SFRSYM    DATA     BYTE      SCON
      000000F1H   SFRSYM    DATA     BYTE      CANICR
      00000087H   SFRSYM    DATA     BYTE      PCON
      000000BCH   SFRSYM    DATA     BYTE      ADC_CONTR
      000000E7H   SFRSYM    DATA     BYTE      CMPCR2
      000000E6H   SFRSYM    DATA     BYTE      CMPCR1
      000000DEH   SFRSYM    DATA     BYTE      ADCCFG
      000000B8H   SFRSYM    DATA     BYTE      IP
      0000008FH   SFRSYM    DATA     BYTE      INTCLKO
      000000EEH   SFRSYM    DATA     BYTE      IP3H
      000000B6H   SFRSYM    DATA     BYTE      IP2H
      000000A8H   SFRSYM    DATA     BYTE      IE
      000000BBH   SFRSYM    DATA     BYTE      P_SW3
      000000BAH   SFRSYM    DATA     BYTE      P_SW2
      000000A2H   SFRSYM    DATA     BYTE      P_SW1
      000000CEH   SFRSYM    DATA     BYTE      SPCTL
      000000F8H   SFRSYM    DATA     BYTE      P7
      000000E8H   SFRSYM    DATA     BYTE      P6
      000000C8H   SFRSYM    DATA     BYTE      P5
      000000C0H   SFRSYM    DATA     BYTE      P4
      000000B0H   SFRSYM    DATA     BYTE      P3
      000000A0H   SFRSYM    DATA     BYTE      P2
      00000090H   SFRSYM    DATA     BYTE      P1
      00000080H   SFRSYM    DATA     BYTE      P0
      000013DDH   SYMBOL    EDATA    WORD      j
      00001425H   SYMBOL    EDATA    BYTE      ack_dat
      000013DFH   SYMBOL    EDATA    BYTE      c
      000013E0H   SYMBOL    EDATA    BYTE      i
      00001397H   SYMBOL    EDATA    BYTE      ack_x
      00001398H   SYMBOL    EDATA    BYTE      i
      00001399H   SYMBOL    EDATA    BYTE      c
      00000DA2H   SYMBOL    EDATA    ---       write_data
      00000DA6H   SYMBOL    EDATA    DWORD     write_len
      00000DAAH   SYMBOL    EDATA    ---       read_data
      00000DAEH   SYMBOL    EDATA    DWORD     read_len
      000012EEH   SYMBOL    EDATA    ---       data_buffer
      000012F1H   SYMBOL    EDATA    INT       dl1b_distance_temp
      00000600H   SYMBOL    EDATA    BYTE      return_state
      00000601H   SYMBOL    EDATA    ---       data_buffer
      0000068AH   SYMBOL    EDATA    WORD      time_out_count

      ---         MODULE    ---      ---       SEEKFREE_FONT
      00FF212DH   PUBLIC    CODE     ---       ascii_font_8x16
      00FF271DH   PUBLIC    CODE     ---       oled_8x16
      00FF2D0DH   PUBLIC    CODE     ---       tft_ascii
      00FF32FDH   PUBLIC    CODE     ---       ascii_font_6x8
      00FF3525H   PUBLIC    CODE     ---       oled_6x8
      000000D0H   SFRSYM    DATA     BYTE      PSW
      0000009DH   SFRSYM    DATA     BYTE      IRCBAND
      00000097H   SFRSYM    DATA     BYTE      AUXR2
      000000EFH   SFRSYM    DATA     BYTE      AUXINTIF
      000000FDH   SFRSYM    DATA     BYTE      S4CON
      000000ACH   SFRSYM    DATA     BYTE      S3CON
      0000009AH   SFRSYM    DATA     BYTE      S2CON
      000000B7H   SFRSYM    DATA     BYTE      IPH
      000000CDH   SFRSYM    DATA     BYTE      SPSTAT
L251 LINKER/LOCATER V4.66.93.0                                                        07/15/2024  23:31:17  PAGE 75


      000000DDH   SFRSYM    DATA     BYTE      T4T3M
      000000C1H   SFRSYM    DATA     BYTE      WDT_CONTR
      000000DFH   SFRSYM    DATA     BYTE      IP3
      000000F4H   SFRSYM    DATA     BYTE      USBCON
      000000B5H   SFRSYM    DATA     BYTE      IP2
      000000FFH   SFRSYM    DATA     BYTE      RSTCFG
      000000C7H   SFRSYM    DATA     BYTE      IAP_CONTR
      000000F9H   SFRSYM    DATA     BYTE      LINICR
      0000008EH   SFRSYM    DATA     BYTE      AUXR
      000000AFH   SFRSYM    DATA     BYTE      IE2
      00000088H   SFRSYM    DATA     BYTE      TCON
      00000089H   SFRSYM    DATA     BYTE      TMOD
      00000098H   SFRSYM    DATA     BYTE      SCON
      000000F1H   SFRSYM    DATA     BYTE      CANICR
      00000087H   SFRSYM    DATA     BYTE      PCON
      000000BCH   SFRSYM    DATA     BYTE      ADC_CONTR
      000000E7H   SFRSYM    DATA     BYTE      CMPCR2
      000000E6H   SFRSYM    DATA     BYTE      CMPCR1
      000000DEH   SFRSYM    DATA     BYTE      ADCCFG
      000000B8H   SFRSYM    DATA     BYTE      IP
      0000008FH   SFRSYM    DATA     BYTE      INTCLKO
      000000EEH   SFRSYM    DATA     BYTE      IP3H
      000000B6H   SFRSYM    DATA     BYTE      IP2H
      000000A8H   SFRSYM    DATA     BYTE      IE
      000000BBH   SFRSYM    DATA     BYTE      P_SW3
      000000BAH   SFRSYM    DATA     BYTE      P_SW2
      000000A2H   SFRSYM    DATA     BYTE      P_SW1
      000000CEH   SFRSYM    DATA     BYTE      SPCTL
      000000F8H   SFRSYM    DATA     BYTE      P7
      000000E8H   SFRSYM    DATA     BYTE      P6
      000000C8H   SFRSYM    DATA     BYTE      P5
      000000C0H   SFRSYM    DATA     BYTE      P4
      000000B0H   SFRSYM    DATA     BYTE      P3
      000000A0H   SFRSYM    DATA     BYTE      P2
      00000090H   SFRSYM    DATA     BYTE      P1
      00000080H   SFRSYM    DATA     BYTE      P0

      ---         MODULE    ---      ---       SEEKFREE_FUNCTION
      000006B4H   PUBLIC    EDATA    BYTE      ?zf_sprintf?BYTE
      000000D0H   SFRSYM    DATA     BYTE      PSW
      0000009DH   SFRSYM    DATA     BYTE      IRCBAND
      00000097H   SFRSYM    DATA     BYTE      AUXR2
      000000EFH   SFRSYM    DATA     BYTE      AUXINTIF
      000000FDH   SFRSYM    DATA     BYTE      S4CON
      000000ACH   SFRSYM    DATA     BYTE      S3CON
      0000009AH   SFRSYM    DATA     BYTE      S2CON
      000000B7H   SFRSYM    DATA     BYTE      IPH
      000000CDH   SFRSYM    DATA     BYTE      SPSTAT
      000000DDH   SFRSYM    DATA     BYTE      T4T3M
      000000C1H   SFRSYM    DATA     BYTE      WDT_CONTR
      000000DFH   SFRSYM    DATA     BYTE      IP3
      000000F4H   SFRSYM    DATA     BYTE      USBCON
      000000B5H   SFRSYM    DATA     BYTE      IP2
      000000FFH   SFRSYM    DATA     BYTE      RSTCFG
      000000C7H   SFRSYM    DATA     BYTE      IAP_CONTR
      000000F9H   SFRSYM    DATA     BYTE      LINICR
      0000008EH   SFRSYM    DATA     BYTE      AUXR
      000000AFH   SFRSYM    DATA     BYTE      IE2
      00000088H   SFRSYM    DATA     BYTE      TCON
      00000089H   SFRSYM    DATA     BYTE      TMOD
      00000098H   SFRSYM    DATA     BYTE      SCON
      000000F1H   SFRSYM    DATA     BYTE      CANICR
      00000087H   SFRSYM    DATA     BYTE      PCON
      000000BCH   SFRSYM    DATA     BYTE      ADC_CONTR
      000000E7H   SFRSYM    DATA     BYTE      CMPCR2
L251 LINKER/LOCATER V4.66.93.0                                                        07/15/2024  23:31:17  PAGE 76


      000000E6H   SFRSYM    DATA     BYTE      CMPCR1
      000000DEH   SFRSYM    DATA     BYTE      ADCCFG
      000000B8H   SFRSYM    DATA     BYTE      IP
      0000008FH   SFRSYM    DATA     BYTE      INTCLKO
      000000EEH   SFRSYM    DATA     BYTE      IP3H
      000000B6H   SFRSYM    DATA     BYTE      IP2H
      000000A8H   SFRSYM    DATA     BYTE      IE
      000000BBH   SFRSYM    DATA     BYTE      P_SW3
      000000BAH   SFRSYM    DATA     BYTE      P_SW2
      000000A2H   SFRSYM    DATA     BYTE      P_SW1
      000000CEH   SFRSYM    DATA     BYTE      SPCTL
      000000F8H   SFRSYM    DATA     BYTE      P7
      000000E8H   SFRSYM    DATA     BYTE      P6
      000000C8H   SFRSYM    DATA     BYTE      P5
      000000C0H   SFRSYM    DATA     BYTE      P4
      000000B0H   SFRSYM    DATA     BYTE      P3
      000000A0H   SFRSYM    DATA     BYTE      P2
      00000090H   SFRSYM    DATA     BYTE      P1
      00000080H   SFRSYM    DATA     BYTE      P0
      00FFACC6H   SYMBOL    HCONST   ---       ?tpl?0001
      00001148H   SYMBOL    EDATA    DWORD     num1
      0000114CH   SYMBOL    EDATA    DWORD     num2
      00001339H   SYMBOL    EDATA    LONG      t
      0000105CH   SYMBOL    EDATA    ---       str
      00001060H   SYMBOL    EDATA    BYTE      sign
      00001061H   SYMBOL    EDATA    LONG      temp
      00000BE2H   SYMBOL    EDATA    ---       str
      00000BE6H   SYMBOL    EDATA    LONG      number
      00000BEAH   SYMBOL    EDATA    ---       data_temp
      00000BFAH   SYMBOL    EDATA    BYTE      dat_bit
      00000BFBH   SYMBOL    EDATA    LONG      number_temp
      00001150H   SYMBOL    EDATA    ---       str
      00001154H   SYMBOL    EDATA    DWORD     temp
      00000C39H   SYMBOL    EDATA    ---       str
      00000C3DH   SYMBOL    EDATA    DWORD     number
      00000C41H   SYMBOL    EDATA    ---       data_temp
      00000C51H   SYMBOL    EDATA    BYTE      dat_bit
      00000D70H   SYMBOL    EDATA    ---       str
      00000D74H   SYMBOL    EDATA    BYTE      sign
      00000D75H   SYMBOL    EDATA    FLOAT     temp
      00000D79H   SYMBOL    EDATA    FLOAT     temp_point
      00000D7DH   SYMBOL    EDATA    FLOAT     point_bit
      00000AB6H   SYMBOL    EDATA    ---       str
      00000ABAH   SYMBOL    EDATA    FLOAT     number
      00000ABEH   SYMBOL    EDATA    BYTE      point_bit
      00000ABFH   SYMBOL    EDATA    INT       data_int
      00000AC1H   SYMBOL    EDATA    INT       data_float
      00000AC3H   SYMBOL    EDATA    ---       data_temp
      00000AD3H   SYMBOL    EDATA    ---       data_temp_point
      00000ADFH   SYMBOL    EDATA    BYTE      dat_bit
      00000D81H   SYMBOL    EDATA    ---       str
      00000D85H   SYMBOL    EDATA    BYTE      sign
      00000D86H   SYMBOL    EDATA    FLOAT     temp
      00000D8AH   SYMBOL    EDATA    FLOAT     temp_point
      00000D8EH   SYMBOL    EDATA    FLOAT     point_bit
      00000827H   SYMBOL    EDATA    ---       str
      0000082BH   SYMBOL    EDATA    FLOAT     number
      0000082FH   SYMBOL    EDATA    BYTE      point_bit
      00000830H   SYMBOL    EDATA    INT       data_int
      00000832H   SYMBOL    EDATA    INT       data_float
      00000834H   SYMBOL    EDATA    ---       data_temp
      0000084CH   SYMBOL    EDATA    ---       data_temp_point
      0000085EH   SYMBOL    EDATA    BYTE      dat_bit
      00000DFEH   SYMBOL    EDATA    ---       str
      00000E02H   SYMBOL    EDATA    DWORD     str_len
L251 LINKER/LOCATER V4.66.93.0                                                        07/15/2024  23:31:17  PAGE 77


      00000E06H   SYMBOL    EDATA    DWORD     result_data
      00000E0AH   SYMBOL    EDATA    BYTE      temp
      00000E0BH   SYMBOL    EDATA    BYTE      flag
      00000B5BH   SYMBOL    EDATA    ---       str
      00000B5FH   SYMBOL    EDATA    DWORD     number
      00000B63H   SYMBOL    EDATA    ---       hex_index
      00000B73H   SYMBOL    EDATA    ---       data_temp
      00000B7FH   SYMBOL    EDATA    BYTE      dat_bit
      00000CEEH   SYMBOL    EDATA    DWORD     dat
      00000CF2H   SYMBOL    EDATA    ---       p
      00000CF6H   SYMBOL    EDATA    BYTE      neg_type
      00000CF7H   SYMBOL    EDATA    BYTE      radix
      00000CF8H   SYMBOL    EDATA    LONG      neg_dat
      00000CFCH   SYMBOL    EDATA    DWORD     pos_dat
      00000D00H   SYMBOL    EDATA    BYTE      temp_data
      00000D01H   SYMBOL    EDATA    BYTE      valid_num
      00000E44H   SYMBOL    EDATA    ---       d_buff
      00000E48H   SYMBOL    EDATA    DWORD     len
      00000E4CH   SYMBOL    EDATA    DWORD     i
      00000E50H   SYMBOL    EDATA    CHAR      temp_data
      000006B4H   SYMBOL    EDATA    ---       buff
      000006B8H   SYMBOL    EDATA    ---       format
      000006BCH   SYMBOL    EDATA    DWORD     buff_len
      000006C0H   SYMBOL    EDATA    ---       arg
      000006C4H   SYMBOL    EDATA    CHAR      ret
      000006C5H   SYMBOL    EDATA    CHAR      ch
      000006C5H   SYMBOL    EDATA    ---       vstr
      000006E6H   SYMBOL    EDATA    LONG      ival
      000006EAH   SYMBOL    EDATA    BYTE      vlen
      000006C5H   SYMBOL    EDATA    ---       vstr
      000006E6H   SYMBOL    EDATA    FLOAT     ival
      000006EAH   SYMBOL    EDATA    BYTE      vlen
      000006C5H   SYMBOL    EDATA    ---       vstr
      000006E6H   SYMBOL    EDATA    DWORD     ival
      000006EAH   SYMBOL    EDATA    BYTE      vlen
      000006C5H   SYMBOL    EDATA    ---       vstr
      000006E6H   SYMBOL    EDATA    DWORD     ival
      000006EAH   SYMBOL    EDATA    BYTE      vlen
      000006C5H   SYMBOL    EDATA    ---       vstr
      000006E6H   SYMBOL    EDATA    DWORD     ival
      000006EAH   SYMBOL    EDATA    BYTE      vlen
      000006C5H   SYMBOL    EDATA    ---       pc
      000006C5H   SYMBOL    EDATA    ---       vstr
      000006E6H   SYMBOL    EDATA    DWORD     ival

      ---         MODULE    ---      ---       SEEKFREE_ICM20602
      00000ED7H   PUBLIC    EDATA    INT       icm20602_acc_x
      00000ED9H   PUBLIC    EDATA    INT       icm20602_acc_y
      00000EDBH   PUBLIC    EDATA    INT       icm20602_acc_z
      00000EDDH   PUBLIC    EDATA    INT       icm20602_gyro_x
      00000EDFH   PUBLIC    EDATA    INT       icm20602_gyro_y
      00000EE1H   PUBLIC    EDATA    INT       icm20602_gyro_z
      000000D0H   SFRSYM    DATA     BYTE      PSW
      0000009DH   SFRSYM    DATA     BYTE      IRCBAND
      00000097H   SFRSYM    DATA     BYTE      AUXR2
      000000EFH   SFRSYM    DATA     BYTE      AUXINTIF
      000000FDH   SFRSYM    DATA     BYTE      S4CON
      000000ACH   SFRSYM    DATA     BYTE      S3CON
      0000009AH   SFRSYM    DATA     BYTE      S2CON
      000000B7H   SFRSYM    DATA     BYTE      IPH
      000000CDH   SFRSYM    DATA     BYTE      SPSTAT
      000000DDH   SFRSYM    DATA     BYTE      T4T3M
      000000C1H   SFRSYM    DATA     BYTE      WDT_CONTR
      000000DFH   SFRSYM    DATA     BYTE      IP3
      000000F4H   SFRSYM    DATA     BYTE      USBCON
L251 LINKER/LOCATER V4.66.93.0                                                        07/15/2024  23:31:17  PAGE 78


      000000B5H   SFRSYM    DATA     BYTE      IP2
      000000FFH   SFRSYM    DATA     BYTE      RSTCFG
      000000C7H   SFRSYM    DATA     BYTE      IAP_CONTR
      000000F9H   SFRSYM    DATA     BYTE      LINICR
      0000008EH   SFRSYM    DATA     BYTE      AUXR
      000000AFH   SFRSYM    DATA     BYTE      IE2
      000000C0H.3 SFRSYM    DATA     BIT       P43
      000000C0H.2 SFRSYM    DATA     BIT       P42
      00000088H   SFRSYM    DATA     BYTE      TCON
      00000089H   SFRSYM    DATA     BYTE      TMOD
      000000C0H.1 SFRSYM    DATA     BIT       P41
      00000098H   SFRSYM    DATA     BYTE      SCON
      000000C0H.0 SFRSYM    DATA     BIT       P40
      000000F1H   SFRSYM    DATA     BYTE      CANICR
      00000087H   SFRSYM    DATA     BYTE      PCON
      000000BCH   SFRSYM    DATA     BYTE      ADC_CONTR
      000000E7H   SFRSYM    DATA     BYTE      CMPCR2
      000000E6H   SFRSYM    DATA     BYTE      CMPCR1
      000000DEH   SFRSYM    DATA     BYTE      ADCCFG
      000000B8H   SFRSYM    DATA     BYTE      IP
      0000008FH   SFRSYM    DATA     BYTE      INTCLKO
      000000EEH   SFRSYM    DATA     BYTE      IP3H
      000000B6H   SFRSYM    DATA     BYTE      IP2H
      000000A8H   SFRSYM    DATA     BYTE      IE
      000000BBH   SFRSYM    DATA     BYTE      P_SW3
      000000BAH   SFRSYM    DATA     BYTE      P_SW2
      000000A2H   SFRSYM    DATA     BYTE      P_SW1
      000000CEH   SFRSYM    DATA     BYTE      SPCTL
      000000F8H   SFRSYM    DATA     BYTE      P7
      000000E8H   SFRSYM    DATA     BYTE      P6
      000000C8H   SFRSYM    DATA     BYTE      P5
      000000C0H   SFRSYM    DATA     BYTE      P4
      000000B0H   SFRSYM    DATA     BYTE      P3
      000000A0H   SFRSYM    DATA     BYTE      P2
      00000090H   SFRSYM    DATA     BYTE      P1
      00000080H   SFRSYM    DATA     BYTE      P0
      000013E1H   SYMBOL    EDATA    BYTE      byte
      000013E2H   SYMBOL    EDATA    BYTE      i
      000013E3H   SYMBOL    EDATA    BYTE      cmd
      000013E4H   SYMBOL    EDATA    BYTE      val
      000012F3H   SYMBOL    EDATA    BYTE      cmd
      000012F4H   SYMBOL    EDATA    ---       val
      00000E51H   SYMBOL    EDATA    BYTE      cmd
      00000E52H   SYMBOL    EDATA    ---       val
      00000E56H   SYMBOL    EDATA    DWORD     num
      00000E5AH   SYMBOL    EDATA    DWORD     i
      000013E5H   SYMBOL    EDATA    BYTE      reg
      000013E6H   SYMBOL    EDATA    BYTE      dat
      000013E7H   SYMBOL    EDATA    BYTE      reg
      000013E8H   SYMBOL    EDATA    BYTE      dat
      00001065H   SYMBOL    EDATA    BYTE      reg
      00001066H   SYMBOL    EDATA    ---       dat
      0000106AH   SYMBOL    EDATA    DWORD     len
      0000133DH   SYMBOL    EDATA    BYTE      dat
      0000133EH   SYMBOL    EDATA    BYTE      return_state
      0000133FH   SYMBOL    EDATA    WORD      timeout_count
      0000124DH   SYMBOL    EDATA    ---       dat
      00001253H   SYMBOL    EDATA    ---       dat
      00001259H   SYMBOL    EDATA    INT       acc_value
      0000125BH   SYMBOL    EDATA    FLOAT     acc_data
      0000125FH   SYMBOL    EDATA    INT       gyro_value
      00001261H   SYMBOL    EDATA    FLOAT     gyro_data
      00001341H   SYMBOL    EDATA    BYTE      val
      00001342H   SYMBOL    EDATA    BYTE      return_state
      00001343H   SYMBOL    EDATA    WORD      timeout_count
L251 LINKER/LOCATER V4.66.93.0                                                        07/15/2024  23:31:17  PAGE 79



      ---         MODULE    ---      ---       SEEKFREE_IMU660RA
      00FF9DEDH   PUBLIC    CODE     ---       imu660ra_get_gyro
      00FF973CH   PUBLIC    CODE     ---       imu660ra_gyro_transition
      00FF9692H   PUBLIC    CODE     ---       imu660ra_init
      00FF9E3DH   PUBLIC    CODE     ---       imu660ra_get_acc
      00000EE3H   PUBLIC    EDATA    INT       imu660ra_acc_x
      00000EE5H   PUBLIC    EDATA    INT       imu660ra_acc_y
      00000EE7H   PUBLIC    EDATA    INT       imu660ra_acc_z
      00000EE9H   PUBLIC    EDATA    INT       imu660ra_gyro_x
      00000EEBH   PUBLIC    EDATA    INT       imu660ra_gyro_y
      00000EEDH   PUBLIC    EDATA    INT       imu660ra_gyro_z
      000000D0H   SFRSYM    DATA     BYTE      PSW
      0000009DH   SFRSYM    DATA     BYTE      IRCBAND
      00000097H   SFRSYM    DATA     BYTE      AUXR2
      000000EFH   SFRSYM    DATA     BYTE      AUXINTIF
      000000FDH   SFRSYM    DATA     BYTE      S4CON
      000000ACH   SFRSYM    DATA     BYTE      S3CON
      0000009AH   SFRSYM    DATA     BYTE      S2CON
      000000B7H   SFRSYM    DATA     BYTE      IPH
      000000CDH   SFRSYM    DATA     BYTE      SPSTAT
      000000DDH   SFRSYM    DATA     BYTE      T4T3M
      000000C1H   SFRSYM    DATA     BYTE      WDT_CONTR
      000000DFH   SFRSYM    DATA     BYTE      IP3
      000000F4H   SFRSYM    DATA     BYTE      USBCON
      000000B5H   SFRSYM    DATA     BYTE      IP2
      000000FFH   SFRSYM    DATA     BYTE      RSTCFG
      000000C7H   SFRSYM    DATA     BYTE      IAP_CONTR
      000000F9H   SFRSYM    DATA     BYTE      LINICR
      0000008EH   SFRSYM    DATA     BYTE      AUXR
      000000AFH   SFRSYM    DATA     BYTE      IE2
      000000C0H.3 SFRSYM    DATA     BIT       P43
      000000C0H.2 SFRSYM    DATA     BIT       P42
      00000088H   SFRSYM    DATA     BYTE      TCON
      00000089H   SFRSYM    DATA     BYTE      TMOD
      000000C0H.1 SFRSYM    DATA     BIT       P41
      00000098H   SFRSYM    DATA     BYTE      SCON
      000000C0H.0 SFRSYM    DATA     BIT       P40
      000000F1H   SFRSYM    DATA     BYTE      CANICR
      00000087H   SFRSYM    DATA     BYTE      PCON
      000000BCH   SFRSYM    DATA     BYTE      ADC_CONTR
      000000E7H   SFRSYM    DATA     BYTE      CMPCR2
      000000E6H   SFRSYM    DATA     BYTE      CMPCR1
      000000DEH   SFRSYM    DATA     BYTE      ADCCFG
      000000B8H   SFRSYM    DATA     BYTE      IP
      0000008FH   SFRSYM    DATA     BYTE      INTCLKO
      000000EEH   SFRSYM    DATA     BYTE      IP3H
      000000B6H   SFRSYM    DATA     BYTE      IP2H
      000000A8H   SFRSYM    DATA     BYTE      IE
      000000BBH   SFRSYM    DATA     BYTE      P_SW3
      000000BAH   SFRSYM    DATA     BYTE      P_SW2
      000000A2H   SFRSYM    DATA     BYTE      P_SW1
      000000CEH   SFRSYM    DATA     BYTE      SPCTL
      000000F8H   SFRSYM    DATA     BYTE      P7
      000000E8H   SFRSYM    DATA     BYTE      P6
      000000C8H   SFRSYM    DATA     BYTE      P5
      000000C0H   SFRSYM    DATA     BYTE      P4
      000000B0H   SFRSYM    DATA     BYTE      P3
      000000A0H   SFRSYM    DATA     BYTE      P2
      00000090H   SFRSYM    DATA     BYTE      P1
      00000080H   SFRSYM    DATA     BYTE      P0
      00FFA337H   SYMBOL    CODE     ---       imu660ra_read_register
      00FFA359H   SYMBOL    CODE     ---       imu660ra_write_registers
      00FFA3BFH   SYMBOL    CODE     ---       imu660ra_write_register
      00FF9C96H   SYMBOL    CODE     ---       imu660ra_simspi_wr_byte
L251 LINKER/LOCATER V4.66.93.0                                                        07/15/2024  23:31:17  PAGE 80


      00FF9F75H   SYMBOL    CODE     ---       imu660ra_self_check
      00FF9FC0H   SYMBOL    CODE     ---       imu660ra_simspi_r_reg_bytes
      00FFA0D7H   SYMBOL    CODE     ---       imu660ra_simspi_w_reg_bytes
      00FF0026H   SYMBOL    CODE     ---       imu660ra_simspi_w_reg_byte
      00FFA2C9H   SYMBOL    CODE     ---       imu660ra_read_registers

      00FF9C96H   BLOCK     CODE     ---       LVL=0
      000013E9H   SYMBOL    EDATA    BYTE      byte
      00FF9C9AH   BLOCK     CODE     NEAR LAB  LVL=1
      000013EAH   SYMBOL    EDATA    BYTE      i
      ---         BLOCKEND  ---      ---       LVL=1
      00FF9C96H   LINE      CODE     ---       #310
      00FF9C9AH   LINE      CODE     ---       #311
      00FF9C9AH   LINE      CODE     ---       #314
      00FF9CA1H   LINE      CODE     ---       #316
      00FF9CAFH   LINE      CODE     ---       #317
      00FF9CB9H   LINE      CODE     ---       #318
      00FF9CBCH   LINE      CODE     ---       #319
      00FF9CBFH   LINE      CODE     ---       #320
      00FF9CC2H   LINE      CODE     ---       #321
      00FF9CC5H   LINE      CODE     ---       #323
      00FF9CD3H   LINE      CODE     ---       #324
      00FF9CEAH   LINE      CODE     ---       #325
      00FF9CEEH   LINE      CODE     ---       #326
      ---         BLOCKEND  ---      ---       LVL=0

      00FF0026H   BLOCK     CODE     ---       LVL=0
      000013EBH   SYMBOL    EDATA    BYTE      cmd
      000013ECH   SYMBOL    EDATA    BYTE      val
      00FF0026H   LINE      CODE     ---       #334
      00FF002EH   LINE      CODE     ---       #336
      00FF0032H   LINE      CODE     ---       #337
      00FF0039H   LINE      CODE     ---       #338
      00FF0040H   LINE      CODE     ---       #339
      ---         BLOCKEND  ---      ---       LVL=0

      00FFA0D7H   BLOCK     CODE     ---       LVL=0
      0000106EH   SYMBOL    EDATA    BYTE      cmd
      0000106FH   SYMBOL    EDATA    ---       dat_addr
      00001073H   SYMBOL    EDATA    DWORD     len
      00FFA0D7H   LINE      CODE     ---       #349
      00FFA0E3H   LINE      CODE     ---       #351
      00FFA0E7H   LINE      CODE     ---       #352
      00FFA0EEH   LINE      CODE     ---       #353
      00FFA0F0H   LINE      CODE     ---       #355
      00FFA100H   LINE      CODE     ---       #356
      00FFA114H   LINE      CODE     ---       #357
      ---         BLOCKEND  ---      ---       LVL=0

      00FF9FC0H   BLOCK     CODE     ---       LVL=0
      00001077H   SYMBOL    EDATA    BYTE      cmd
      00001078H   SYMBOL    EDATA    ---       val
      0000107CH   SYMBOL    EDATA    DWORD     num
      00FF9FC0H   LINE      CODE     ---       #383
      00FF9FCCH   LINE      CODE     ---       #385
      00FF9FD8H   LINE      CODE     ---       #386
      00FF9FDFH   LINE      CODE     ---       #388
      00FF9FE1H   LINE      CODE     ---       #390
      00FF9FF6H   LINE      CODE     ---       #391
      00FFA00AH   LINE      CODE     ---       #392
      ---         BLOCKEND  ---      ---       LVL=0

      00FFA3BFH   BLOCK     CODE     ---       LVL=0
      000013EDH   SYMBOL    EDATA    BYTE      reg
      000013EEH   SYMBOL    EDATA    BYTE      dat
L251 LINKER/LOCATER V4.66.93.0                                                        07/15/2024  23:31:17  PAGE 81


      00FFA3BFH   LINE      CODE     ---       #403
      00FFA3C7H   LINE      CODE     ---       #405
      00FFA3CAH   LINE      CODE     ---       #406
      00FFA3D5H   LINE      CODE     ---       #407
      00FFA3D8H   LINE      CODE     ---       #408
      ---         BLOCKEND  ---      ---       LVL=0

      00FFA359H   BLOCK     CODE     ---       LVL=0
      00001080H   SYMBOL    EDATA    BYTE      reg
      00001081H   SYMBOL    EDATA    ---       dat
      00001085H   SYMBOL    EDATA    DWORD     len
      00FFA359H   LINE      CODE     ---       #418
      00FFA365H   LINE      CODE     ---       #420
      00FFA368H   LINE      CODE     ---       #422
      00FFA377H   LINE      CODE     ---       #423
      00FFA37AH   LINE      CODE     ---       #424
      ---         BLOCKEND  ---      ---       LVL=0

      00FFA337H   BLOCK     CODE     ---       LVL=0
      0000139AH   SYMBOL    EDATA    BYTE      reg
      00FFA33BH   BLOCK     CODE     NEAR LAB  LVL=1
      0000139BH   SYMBOL    EDATA    ---       dat
      ---         BLOCKEND  ---      ---       LVL=1
      00FFA337H   LINE      CODE     ---       #433
      00FFA33BH   LINE      CODE     ---       #434
      00FFA33BH   LINE      CODE     ---       #436
      00FFA33EH   LINE      CODE     ---       #437
      00FFA351H   LINE      CODE     ---       #438
      00FFA354H   LINE      CODE     ---       #439
      00FFA358H   LINE      CODE     ---       #440
      ---         BLOCKEND  ---      ---       LVL=0

      00FFA2C9H   BLOCK     CODE     ---       LVL=0
      00001089H   SYMBOL    EDATA    BYTE      reg
      0000108AH   SYMBOL    EDATA    ---       dat
      0000108EH   SYMBOL    EDATA    DWORD     len
      00FFA2C9H   LINE      CODE     ---       #451
      00FFA2D5H   LINE      CODE     ---       #453
      00FFA2D8H   LINE      CODE     ---       #454
      00FFA2EBH   LINE      CODE     ---       #455
      00FFA2EEH   LINE      CODE     ---       #456
      ---         BLOCKEND  ---      ---       LVL=0

      00FF9F75H   BLOCK     CODE     ---       LVL=0
      00001345H   SYMBOL    EDATA    BYTE      dat
      00001346H   SYMBOL    EDATA    BYTE      return_state
      00001347H   SYMBOL    EDATA    WORD      timeout_count
      00FF9F75H   LINE      CODE     ---       #466
      00FF9F75H   LINE      CODE     ---       #467
      00FF9F75H   LINE      CODE     ---       #468
      00FF9F7FH   LINE      CODE     ---       #469
      00FF9F85H   LINE      CODE     ---       #470
      00FF9F85H   LINE      CODE     ---       #472
      00FF9F9BH   LINE      CODE     ---       #474
      00FF9FA1H   LINE      CODE     ---       #475
      00FF9FA3H   LINE      CODE     ---       #476
      00FF9FA3H   LINE      CODE     ---       #477
      00FF9FABH   LINE      CODE     ---       #478
      00FF9FB2H   LINE      CODE     ---       #479
      00FF9FBBH   LINE      CODE     ---       #480
      00FF9FBFH   LINE      CODE     ---       #481
      ---         BLOCKEND  ---      ---       LVL=0

      00FF9E3DH   BLOCK     CODE     ---       LVL=0
      000011EDH   SYMBOL    EDATA    ---       dat
L251 LINKER/LOCATER V4.66.93.0                                                        07/15/2024  23:31:17  PAGE 82


      00FF9E3DH   LINE      CODE     ---       #491
      00FF9E3DH   LINE      CODE     ---       #492
      00FF9E3DH   LINE      CODE     ---       #502
      00FF9E4AH   LINE      CODE     ---       #503
      00FF9E60H   LINE      CODE     ---       #504
      00FF9E76H   LINE      CODE     ---       #505
      00FF9E8CH   LINE      CODE     ---       #507
      ---         BLOCKEND  ---      ---       LVL=0

      00FF9DEDH   BLOCK     CODE     ---       LVL=0
      000011F4H   SYMBOL    EDATA    ---       dat
      00FF9DEDH   LINE      CODE     ---       #516
      00FF9DEDH   LINE      CODE     ---       #517
      00FF9DEDH   LINE      CODE     ---       #527
      00FF9DFAH   LINE      CODE     ---       #528
      00FF9E10H   LINE      CODE     ---       #529
      00FF9E26H   LINE      CODE     ---       #530
      00FF9E3CH   LINE      CODE     ---       #532
      ---         BLOCKEND  ---      ---       LVL=0
      00001265H   SYMBOL    EDATA    INT       acc_value
      00001267H   SYMBOL    EDATA    FLOAT     acc_dat

      00FF973CH   BLOCK     CODE     ---       LVL=0
      0000126BH   SYMBOL    EDATA    INT       gyro_value
      00FF9740H   BLOCK     CODE     NEAR LAB  LVL=1
      0000126DH   SYMBOL    EDATA    FLOAT     gyro_dat
      ---         BLOCKEND  ---      ---       LVL=1
      00FF973CH   LINE      CODE     ---       #562
      00FF9740H   LINE      CODE     ---       #563
      00FF9740H   LINE      CODE     ---       #564
      00FF9746H   LINE      CODE     ---       #565
      00FF975FH   LINE      CODE     ---       #567
      00FF9779H   LINE      CODE     ---       #568
      00FF9793H   LINE      CODE     ---       #569
      00FF97ADH   LINE      CODE     ---       #570
      00FF97C7H   LINE      CODE     ---       #571
      00FF97DFH   LINE      CODE     ---       #572
      00FF97DFH   LINE      CODE     ---       #573
      00FF97DFH   LINE      CODE     ---       #574
      00FF97E3H   LINE      CODE     ---       #575
      ---         BLOCKEND  ---      ---       LVL=0

      00FF9692H   BLOCK     CODE     ---       LVL=0
      00001426H   SYMBOL    EDATA    BYTE      return_state
      00FF9692H   LINE      CODE     ---       #584
      00FF9692H   LINE      CODE     ---       #585
      00FF9692H   LINE      CODE     ---       #586
      00FF9697H   LINE      CODE     ---       #588
      00FF969EH   LINE      CODE     ---       #599
      00FF969EH   LINE      CODE     ---       #600
      00FF96A6H   LINE      CODE     ---       #605
      00FF96A6H   LINE      CODE     ---       #607
      00FF96B1H   LINE      CODE     ---       #608
      00FF96B8H   LINE      CODE     ---       #609
      00FF96BAH   LINE      CODE     ---       #610
      00FF96C0H   LINE      CODE     ---       #612
      00FF96C0H   LINE      CODE     ---       #614
      00FF96C7H   LINE      CODE     ---       #615
      00FF96CEH   LINE      CODE     ---       #616
      00FF96D5H   LINE      CODE     ---       #617
      00FF96E6H   LINE      CODE     ---       #618
      00FF96EEH   LINE      CODE     ---       #619
      00FF96F5H   LINE      CODE     ---       #620
      00FF96FFH   LINE      CODE     ---       #627
      00FF970AH   LINE      CODE     ---       #630
L251 LINKER/LOCATER V4.66.93.0                                                        07/15/2024  23:31:17  PAGE 83


      00FF9710H   LINE      CODE     ---       #632
      00FF9710H   LINE      CODE     ---       #633
      00FF9718H   LINE      CODE     ---       #634
      00FF9720H   LINE      CODE     ---       #635
      00FF9728H   LINE      CODE     ---       #637
      00FF9730H   LINE      CODE     ---       #645
      00FF9737H   LINE      CODE     ---       #654
      00FF9737H   LINE      CODE     ---       #658
      00FF973BH   LINE      CODE     ---       #659
      ---         BLOCKEND  ---      ---       LVL=0

      ---         MODULE    ---      ---       SEEKFREE_IMU963RA
      00000D28H   PUBLIC    EDATA    INT       imu963ra_acc_x
      00000D2AH   PUBLIC    EDATA    INT       imu963ra_acc_y
      00000D2CH   PUBLIC    EDATA    INT       imu963ra_acc_z
      00000D2EH   PUBLIC    EDATA    INT       imu963ra_mag_x
      00000D30H   PUBLIC    EDATA    INT       imu963ra_mag_y
      00000D32H   PUBLIC    EDATA    INT       imu963ra_mag_z
      00000D34H   PUBLIC    EDATA    INT       imu963ra_gyro_x
      00000D36H   PUBLIC    EDATA    INT       imu963ra_gyro_y
      00000D38H   PUBLIC    EDATA    INT       imu963ra_gyro_z
      000000D0H   SFRSYM    DATA     BYTE      PSW
      0000009DH   SFRSYM    DATA     BYTE      IRCBAND
      00000097H   SFRSYM    DATA     BYTE      AUXR2
      000000EFH   SFRSYM    DATA     BYTE      AUXINTIF
      000000FDH   SFRSYM    DATA     BYTE      S4CON
      000000ACH   SFRSYM    DATA     BYTE      S3CON
      0000009AH   SFRSYM    DATA     BYTE      S2CON
      000000B7H   SFRSYM    DATA     BYTE      IPH
      000000CDH   SFRSYM    DATA     BYTE      SPSTAT
      000000DDH   SFRSYM    DATA     BYTE      T4T3M
      000000C1H   SFRSYM    DATA     BYTE      WDT_CONTR
      000000DFH   SFRSYM    DATA     BYTE      IP3
      000000F4H   SFRSYM    DATA     BYTE      USBCON
      000000B5H   SFRSYM    DATA     BYTE      IP2
      000000FFH   SFRSYM    DATA     BYTE      RSTCFG
      000000C7H   SFRSYM    DATA     BYTE      IAP_CONTR
      000000F9H   SFRSYM    DATA     BYTE      LINICR
      0000008EH   SFRSYM    DATA     BYTE      AUXR
      000000AFH   SFRSYM    DATA     BYTE      IE2
      000000C0H.3 SFRSYM    DATA     BIT       P43
      000000C0H.2 SFRSYM    DATA     BIT       P42
      00000088H   SFRSYM    DATA     BYTE      TCON
      00000089H   SFRSYM    DATA     BYTE      TMOD
      000000C0H.1 SFRSYM    DATA     BIT       P41
      00000098H   SFRSYM    DATA     BYTE      SCON
      000000C0H.0 SFRSYM    DATA     BIT       P40
      000000F1H   SFRSYM    DATA     BYTE      CANICR
      00000087H   SFRSYM    DATA     BYTE      PCON
      000000BCH   SFRSYM    DATA     BYTE      ADC_CONTR
      000000E7H   SFRSYM    DATA     BYTE      CMPCR2
      000000E6H   SFRSYM    DATA     BYTE      CMPCR1
      000000DEH   SFRSYM    DATA     BYTE      ADCCFG
      000000B8H   SFRSYM    DATA     BYTE      IP
      0000008FH   SFRSYM    DATA     BYTE      INTCLKO
      000000EEH   SFRSYM    DATA     BYTE      IP3H
      000000B6H   SFRSYM    DATA     BYTE      IP2H
      000000A8H   SFRSYM    DATA     BYTE      IE
      000000BBH   SFRSYM    DATA     BYTE      P_SW3
      000000BAH   SFRSYM    DATA     BYTE      P_SW2
      000000A2H   SFRSYM    DATA     BYTE      P_SW1
      000000CEH   SFRSYM    DATA     BYTE      SPCTL
      000000F8H   SFRSYM    DATA     BYTE      P7
      000000E8H   SFRSYM    DATA     BYTE      P6
      000000C8H   SFRSYM    DATA     BYTE      P5
L251 LINKER/LOCATER V4.66.93.0                                                        07/15/2024  23:31:17  PAGE 84


      000000C0H   SFRSYM    DATA     BYTE      P4
      000000B0H   SFRSYM    DATA     BYTE      P3
      000000A0H   SFRSYM    DATA     BYTE      P2
      00000090H   SFRSYM    DATA     BYTE      P1
      00000080H   SFRSYM    DATA     BYTE      P0
      000013EFH   SYMBOL    EDATA    BYTE      byte
      000013F0H   SYMBOL    EDATA    BYTE      i
      000013F1H   SYMBOL    EDATA    BYTE      cmd
      000013F2H   SYMBOL    EDATA    BYTE      val
      000012F8H   SYMBOL    EDATA    BYTE      cmd
      000012F9H   SYMBOL    EDATA    ---       val
      00001092H   SYMBOL    EDATA    BYTE      cmd
      00001093H   SYMBOL    EDATA    ---       val
      00001097H   SYMBOL    EDATA    DWORD     num
      000013F3H   SYMBOL    EDATA    BYTE      reg
      000013F4H   SYMBOL    EDATA    BYTE      dat
      000013F5H   SYMBOL    EDATA    BYTE      reg
      000013F6H   SYMBOL    EDATA    BYTE      dat
      0000109BH   SYMBOL    EDATA    BYTE      reg
      0000109CH   SYMBOL    EDATA    ---       dat
      000010A0H   SYMBOL    EDATA    DWORD     len
      00001271H   SYMBOL    EDATA    BYTE      addr
      00001272H   SYMBOL    EDATA    BYTE      reg
      00001273H   SYMBOL    EDATA    BYTE      dat
      00001274H   SYMBOL    EDATA    BYTE      return_state
      00001275H   SYMBOL    EDATA    WORD      timeout_count
      00001349H   SYMBOL    EDATA    BYTE      addr
      0000134AH   SYMBOL    EDATA    BYTE      reg
      0000134BH   SYMBOL    EDATA    WORD      timeout_count
      000013F7H   SYMBOL    EDATA    BYTE      addr
      000013F8H   SYMBOL    EDATA    BYTE      reg
      0000134DH   SYMBOL    EDATA    BYTE      return_state
      0000134EH   SYMBOL    EDATA    BYTE      dat
      0000134FH   SYMBOL    EDATA    WORD      timeout_count
      00001351H   SYMBOL    EDATA    BYTE      return_state
      00001352H   SYMBOL    EDATA    BYTE      dat
      00001353H   SYMBOL    EDATA    WORD      timeout_count
      00001277H   SYMBOL    EDATA    ---       dat
      0000127DH   SYMBOL    EDATA    ---       dat
      000011FBH   SYMBOL    EDATA    BYTE      temp_status
      000011FCH   SYMBOL    EDATA    ---       dat
      00001283H   SYMBOL    EDATA    INT       acc_value
      00001285H   SYMBOL    EDATA    FLOAT     acc_dat
      00001289H   SYMBOL    EDATA    INT       gyro_value
      0000128BH   SYMBOL    EDATA    FLOAT     gyro_dat
      0000128FH   SYMBOL    EDATA    INT       mag_value
      00001291H   SYMBOL    EDATA    FLOAT     mag_dat
      00001427H   SYMBOL    EDATA    BYTE      return_state

      ---         MODULE    ---      ---       SEEKFREE_IPS114_SPI
      00FFA29FH   PUBLIC    CODE     ---       ips114_writedata_16bit
      00FF93ADH   PUBLIC    CODE     ---       ips114_showchar
      00FF8FE4H   PUBLIC    CODE     ---       ips114_showint16
      00FF9B1FH   PUBLIC    CODE     ---       ips114_clear
      00FF9C39H   PUBLIC    CODE     ---       ips114_showstr
      00FFA427H   PUBLIC    CODE     ---       ips114_writeIndex
      00FFA43CH   PUBLIC    CODE     ---       ips114_writeData
      00FF9D99H   PUBLIC    CODE     ---       ips114_set_region
      00FF8862H   PUBLIC    CODE     ---       ips114_init
      000008BFH   PUBLIC    EDATA    BYTE      ?ips114_showfloat_simspi?BYTE
      000008EFH   PUBLIC    EDATA    BYTE      ?ips114_showfloat?BYTE
      000000D0H   SFRSYM    DATA     BYTE      PSW
      0000009DH   SFRSYM    DATA     BYTE      IRCBAND
      00000097H   SFRSYM    DATA     BYTE      AUXR2
      000000EFH   SFRSYM    DATA     BYTE      AUXINTIF
L251 LINKER/LOCATER V4.66.93.0                                                        07/15/2024  23:31:17  PAGE 85


      000000FDH   SFRSYM    DATA     BYTE      S4CON
      000000ACH   SFRSYM    DATA     BYTE      S3CON
      0000009AH   SFRSYM    DATA     BYTE      S2CON
      000000B7H   SFRSYM    DATA     BYTE      IPH
      000000CDH   SFRSYM    DATA     BYTE      SPSTAT
      000000DDH   SFRSYM    DATA     BYTE      T4T3M
      000000C1H   SFRSYM    DATA     BYTE      WDT_CONTR
      000000DFH   SFRSYM    DATA     BYTE      IP3
      000000F4H   SFRSYM    DATA     BYTE      USBCON
      000000B5H   SFRSYM    DATA     BYTE      IP2
      000000FFH   SFRSYM    DATA     BYTE      RSTCFG
      000000C7H   SFRSYM    DATA     BYTE      IAP_CONTR
      000000F9H   SFRSYM    DATA     BYTE      LINICR
      0000008EH   SFRSYM    DATA     BYTE      AUXR
      000000AFH   SFRSYM    DATA     BYTE      IE2
      000000A0H.7 SFRSYM    DATA     BIT       P27
      000000A0H.5 SFRSYM    DATA     BIT       P25
      00000088H   SFRSYM    DATA     BYTE      TCON
      00000089H   SFRSYM    DATA     BYTE      TMOD
      000000A0H.3 SFRSYM    DATA     BIT       P23
      00000098H   SFRSYM    DATA     BYTE      SCON
      000000A0H.2 SFRSYM    DATA     BIT       P22
      000000A0H.1 SFRSYM    DATA     BIT       P21
      000000A0H.0 SFRSYM    DATA     BIT       P20
      000000F1H   SFRSYM    DATA     BYTE      CANICR
      00000087H   SFRSYM    DATA     BYTE      PCON
      000000BCH   SFRSYM    DATA     BYTE      ADC_CONTR
      000000E7H   SFRSYM    DATA     BYTE      CMPCR2
      000000E6H   SFRSYM    DATA     BYTE      CMPCR1
      000000DEH   SFRSYM    DATA     BYTE      ADCCFG
      000000B8H   SFRSYM    DATA     BYTE      IP
      0000008FH   SFRSYM    DATA     BYTE      INTCLKO
      000000EEH   SFRSYM    DATA     BYTE      IP3H
      000000B6H   SFRSYM    DATA     BYTE      IP2H
      000000A8H   SFRSYM    DATA     BYTE      IE
      000000BBH   SFRSYM    DATA     BYTE      P_SW3
      000000BAH   SFRSYM    DATA     BYTE      P_SW2
      000000A2H   SFRSYM    DATA     BYTE      P_SW1
      000000CEH   SFRSYM    DATA     BYTE      SPCTL
      000000F8H   SFRSYM    DATA     BYTE      P7
      000000E8H   SFRSYM    DATA     BYTE      P6
      000000C8H   SFRSYM    DATA     BYTE      P5
      000000C0H   SFRSYM    DATA     BYTE      P4
      000000B0H   SFRSYM    DATA     BYTE      P3
      000000A0H   SFRSYM    DATA     BYTE      P2
      00000090H   SFRSYM    DATA     BYTE      P1
      00000080H   SFRSYM    DATA     BYTE      P0
      000013F9H   SYMBOL    EDATA    BYTE      dat
      000013FAH   SYMBOL    EDATA    BYTE      i
      000013FBH   SYMBOL    EDATA    BYTE      dat
      000013FCH   SYMBOL    EDATA    BYTE      i
      0000139DH   SYMBOL    EDATA    WORD      dat
      0000139FH   SYMBOL    EDATA    BYTE      i
      00001158H   SYMBOL    EDATA    WORD      x1
      0000115AH   SYMBOL    EDATA    WORD      y1
      0000115CH   SYMBOL    EDATA    WORD      x2
      0000115EH   SYMBOL    EDATA    WORD      y2
      00001295H   SYMBOL    EDATA    WORD      color
      00001297H   SYMBOL    EDATA    WORD      i
      00001299H   SYMBOL    EDATA    WORD      j
      0000129BH   SYMBOL    EDATA    WORD      x
      0000129DH   SYMBOL    EDATA    WORD      y
      0000129FH   SYMBOL    EDATA    WORD      color
      00001160H   SYMBOL    EDATA    WORD      x
      00001162H   SYMBOL    EDATA    WORD      y
L251 LINKER/LOCATER V4.66.93.0                                                        07/15/2024  23:31:17  PAGE 86


      00001164H   SYMBOL    EDATA    CHAR      dat
      00001165H   SYMBOL    EDATA    BYTE      i
      00001166H   SYMBOL    EDATA    BYTE      j
      00001167H   SYMBOL    EDATA    BYTE      temp
      00000FEBH   SYMBOL    EDATA    WORD      x
      00000FEDH   SYMBOL    EDATA    WORD      y
      00000FEFH   SYMBOL    EDATA    ---       dat
      00000FF3H   SYMBOL    EDATA    WORD      j
      000010A4H   SYMBOL    EDATA    WORD      x
      000010A6H   SYMBOL    EDATA    WORD      y
      000010A8H   SYMBOL    EDATA    CHAR      dat
      000010A9H   SYMBOL    EDATA    ---       a
      000010ACH   SYMBOL    EDATA    BYTE      i
      000010ADH   SYMBOL    EDATA    WORD      x
      000010AFH   SYMBOL    EDATA    WORD      y
      000010B1H   SYMBOL    EDATA    BYTE      dat
      000010B2H   SYMBOL    EDATA    ---       a
      000010B5H   SYMBOL    EDATA    BYTE      i
      00000EEFH   SYMBOL    EDATA    WORD      x
      00000EF1H   SYMBOL    EDATA    WORD      y
      00000EF3H   SYMBOL    EDATA    INT       dat
      00000EF5H   SYMBOL    EDATA    ---       a
      00000EFAH   SYMBOL    EDATA    BYTE      i
      00000EFBH   SYMBOL    EDATA    WORD      x
      00000EFDH   SYMBOL    EDATA    WORD      y
      00000EFFH   SYMBOL    EDATA    WORD      dat
      00000F01H   SYMBOL    EDATA    ---       a
      00000F06H   SYMBOL    EDATA    BYTE      i
      00000A06H   SYMBOL    EDATA    WORD      x
      00000A08H   SYMBOL    EDATA    WORD      y
      00000A0AH   SYMBOL    EDATA    LONG      dat
      00000A0EH   SYMBOL    EDATA    BYTE      num
      00000A0FH   SYMBOL    EDATA    ---       buff
      00000A31H   SYMBOL    EDATA    BYTE      length
      000008BFH   SYMBOL    EDATA    WORD      x
      000008C1H   SYMBOL    EDATA    WORD      y
      000008C3H   SYMBOL    EDATA    FLOAT     dat
      000008C7H   SYMBOL    EDATA    BYTE      num
      000008C8H   SYMBOL    EDATA    BYTE      pointnum
      000008C9H   SYMBOL    EDATA    BYTE      length
      000008CAH   SYMBOL    EDATA    ---       buff
      000008ECH   SYMBOL    EDATA    CHAR      start
      000008EDH   SYMBOL    EDATA    CHAR      end
      000008EEH   SYMBOL    EDATA    CHAR      point

      00FFA427H   BLOCK     CODE     ---       LVL=0
      00001428H   SYMBOL    EDATA    BYTE      dat
      00FFA427H   LINE      CODE     ---       #594
      00FFA42BH   LINE      CODE     ---       #596
      00FFA42EH   LINE      CODE     ---       #597
      00FFA431H   LINE      CODE     ---       #599
      00FFA438H   LINE      CODE     ---       #600
      00FFA43BH   LINE      CODE     ---       #601
      ---         BLOCKEND  ---      ---       LVL=0

      00FFA43CH   BLOCK     CODE     ---       LVL=0
      00001429H   SYMBOL    EDATA    BYTE      dat
      00FFA43CH   LINE      CODE     ---       #610
      00FFA440H   LINE      CODE     ---       #612
      00FFA443H   LINE      CODE     ---       #613
      00FFA446H   LINE      CODE     ---       #615
      00FFA44DH   LINE      CODE     ---       #616
      00FFA450H   LINE      CODE     ---       #617
      ---         BLOCKEND  ---      ---       LVL=0

L251 LINKER/LOCATER V4.66.93.0                                                        07/15/2024  23:31:17  PAGE 87


      00FFA29FH   BLOCK     CODE     ---       LVL=0
      00001355H   SYMBOL    EDATA    WORD      dat
      00FFA2A3H   BLOCK     CODE     NEAR LAB  LVL=1
      00001357H   SYMBOL    EDATA    ---       dat1
      ---         BLOCKEND  ---      ---       LVL=1
      00FFA29FH   LINE      CODE     ---       #626
      00FFA2A3H   LINE      CODE     ---       #627
      00FFA2A3H   LINE      CODE     ---       #629
      00FFA2A9H   LINE      CODE     ---       #630
      00FFA2B1H   LINE      CODE     ---       #631
      00FFA2B4H   LINE      CODE     ---       #632
      00FFA2B7H   LINE      CODE     ---       #633
      00FFA2BEH   LINE      CODE     ---       #634
      00FFA2C5H   LINE      CODE     ---       #635
      00FFA2C8H   LINE      CODE     ---       #636
      ---         BLOCKEND  ---      ---       LVL=0

      00FF8862H   BLOCK     CODE     ---       LVL=0
      00FF8862H   LINE      CODE     ---       #644
      00FF8862H   LINE      CODE     ---       #646
      00FF8884H   LINE      CODE     ---       #648
      00FF8887H   LINE      CODE     ---       #649
      00FF888AH   LINE      CODE     ---       #650
      00FF888DH   LINE      CODE     ---       #652
      00FF8894H   LINE      CODE     ---       #654
      00FF8897H   LINE      CODE     ---       #655
      00FF889EH   LINE      CODE     ---       #657
      00FF88A3H   LINE      CODE     ---       #666
      00FF88A8H   LINE      CODE     ---       #669
      00FF88ADH   LINE      CODE     ---       #670
      00FF88B2H   LINE      CODE     ---       #672
      00FF88B7H   LINE      CODE     ---       #673
      00FF88BCH   LINE      CODE     ---       #674
      00FF88C1H   LINE      CODE     ---       #675
      00FF88C5H   LINE      CODE     ---       #676
      00FF88CAH   LINE      CODE     ---       #677
      00FF88CFH   LINE      CODE     ---       #679
      00FF88D4H   LINE      CODE     ---       #680
      00FF88D9H   LINE      CODE     ---       #682
      00FF88DEH   LINE      CODE     ---       #683
      00FF88E3H   LINE      CODE     ---       #685
      00FF88E8H   LINE      CODE     ---       #686
      00FF88EDH   LINE      CODE     ---       #688
      00FF88F2H   LINE      CODE     ---       #689
      00FF88F7H   LINE      CODE     ---       #691
      00FF88FCH   LINE      CODE     ---       #692
      00FF8901H   LINE      CODE     ---       #694
      00FF8906H   LINE      CODE     ---       #695
      00FF890BH   LINE      CODE     ---       #697
      00FF8910H   LINE      CODE     ---       #698
      00FF8915H   LINE      CODE     ---       #700
      00FF891AH   LINE      CODE     ---       #701
      00FF891FH   LINE      CODE     ---       #702
      00FF8924H   LINE      CODE     ---       #704
      00FF8929H   LINE      CODE     ---       #705
      00FF892EH   LINE      CODE     ---       #706
      00FF8933H   LINE      CODE     ---       #707
      00FF8938H   LINE      CODE     ---       #708
      00FF893DH   LINE      CODE     ---       #709
      00FF8942H   LINE      CODE     ---       #710
      00FF8947H   LINE      CODE     ---       #711
      00FF894CH   LINE      CODE     ---       #712
      00FF8951H   LINE      CODE     ---       #713
      00FF8956H   LINE      CODE     ---       #714
      00FF895BH   LINE      CODE     ---       #715
L251 LINKER/LOCATER V4.66.93.0                                                        07/15/2024  23:31:17  PAGE 88


      00FF8960H   LINE      CODE     ---       #716
      00FF8965H   LINE      CODE     ---       #717
      00FF896AH   LINE      CODE     ---       #718
      00FF896FH   LINE      CODE     ---       #720
      00FF8974H   LINE      CODE     ---       #721
      00FF8979H   LINE      CODE     ---       #722
      00FF897EH   LINE      CODE     ---       #723
      00FF8983H   LINE      CODE     ---       #724
      00FF8988H   LINE      CODE     ---       #725
      00FF898DH   LINE      CODE     ---       #726
      00FF8992H   LINE      CODE     ---       #727
      00FF8997H   LINE      CODE     ---       #728
      00FF899CH   LINE      CODE     ---       #729
      00FF89A1H   LINE      CODE     ---       #730
      00FF89A6H   LINE      CODE     ---       #731
      00FF89ABH   LINE      CODE     ---       #732
      00FF89B0H   LINE      CODE     ---       #733
      00FF89B5H   LINE      CODE     ---       #734
      00FF89BAH   LINE      CODE     ---       #736
      00FF89BFH   LINE      CODE     ---       #738
      00FF89C4H   LINE      CODE     ---       #739
      00FF89CBH   LINE      CODE     ---       #741
      00FF89D0H   LINE      CODE     ---       #742
      00FF89D7H   LINE      CODE     ---       #743
      ---         BLOCKEND  ---      ---       LVL=0

      00FF9D99H   BLOCK     CODE     ---       LVL=0
      00001168H   SYMBOL    EDATA    WORD      x1
      0000116AH   SYMBOL    EDATA    WORD      y1
      0000116CH   SYMBOL    EDATA    WORD      x2
      0000116EH   SYMBOL    EDATA    WORD      y2
      00FF9D99H   LINE      CODE     ---       #747
      00FF9DA9H   LINE      CODE     ---       #781
      00FF9DAEH   LINE      CODE     ---       #782
      00FF9DBBH   LINE      CODE     ---       #783
      00FF9DC8H   LINE      CODE     ---       #784
      00FF9DCDH   LINE      CODE     ---       #785
      00FF9DDAH   LINE      CODE     ---       #786
      00FF9DE7H   LINE      CODE     ---       #787
      00FF9DECH   LINE      CODE     ---       #790
      ---         BLOCKEND  ---      ---       LVL=0

      00FF9B1FH   BLOCK     CODE     ---       LVL=0
      000012A1H   SYMBOL    EDATA    WORD      color
      00FF9B23H   BLOCK     CODE     NEAR LAB  LVL=1
      000012A3H   SYMBOL    EDATA    WORD      i
      000012A5H   SYMBOL    EDATA    WORD      j
      ---         BLOCKEND  ---      ---       LVL=1
      00FF9B1FH   LINE      CODE     ---       #799
      00FF9B23H   LINE      CODE     ---       #800
      00FF9B23H   LINE      CODE     ---       #802
      00FF9B32H   LINE      CODE     ---       #803
      00FF9B3AH   LINE      CODE     ---       #805
      00FF9B42H   LINE      CODE     ---       #807
      00FF9B49H   LINE      CODE     ---       #808
      00FF9B63H   LINE      CODE     ---       #809
      00FF9B7DH   LINE      CODE     ---       #810
      ---         BLOCKEND  ---      ---       LVL=0
      000012A7H   SYMBOL    EDATA    WORD      x
      000012A9H   SYMBOL    EDATA    WORD      y
      000012ABH   SYMBOL    EDATA    WORD      color

      00FF93ADH   BLOCK     CODE     ---       LVL=0
      00001170H   SYMBOL    EDATA    WORD      x
      00001172H   SYMBOL    EDATA    WORD      y
L251 LINKER/LOCATER V4.66.93.0                                                        07/15/2024  23:31:17  PAGE 89


      00001174H   SYMBOL    EDATA    CHAR      dat
      00FF93B9H   BLOCK     CODE     NEAR LAB  LVL=1
      00001175H   SYMBOL    EDATA    BYTE      i
      00001176H   SYMBOL    EDATA    BYTE      j
      00001177H   SYMBOL    EDATA    BYTE      temp
      ---         BLOCKEND  ---      ---       LVL=1
      00FF93ADH   LINE      CODE     ---       #838
      00FF93B9H   LINE      CODE     ---       #839
      00FF93B9H   LINE      CODE     ---       #843
      00FF93C1H   LINE      CODE     ---       #845
      00FF93EAH   LINE      CODE     ---       #846
      00FF9412H   LINE      CODE     ---       #847
      00FF9419H   LINE      CODE     ---       #849
      00FF9420H   LINE      CODE     ---       #851
      00FF9427H   LINE      CODE     ---       #852
      00FF9429H   LINE      CODE     ---       #853
      00FF9430H   LINE      CODE     ---       #854
      00FF943AH   LINE      CODE     ---       #855
      00FF9451H   LINE      CODE     ---       #856
      00FF946BH   LINE      CODE     ---       #857
      ---         BLOCKEND  ---      ---       LVL=0

      00FF9C39H   BLOCK     CODE     ---       LVL=0
      00000FF5H   SYMBOL    EDATA    WORD      x
      00000FF7H   SYMBOL    EDATA    WORD      y
      00000FF9H   SYMBOL    EDATA    ---       dat
      00FF9C45H   BLOCK     CODE     NEAR LAB  LVL=1
      00000FFDH   SYMBOL    EDATA    WORD      j
      ---         BLOCKEND  ---      ---       LVL=1
      00FF9C39H   LINE      CODE     ---       #868
      00FF9C45H   LINE      CODE     ---       #869
      00FF9C45H   LINE      CODE     ---       #872
      00FF9C4BH   LINE      CODE     ---       #873
      00FF9C4DH   LINE      CODE     ---       #875
      00FF9C77H   LINE      CODE     ---       #876
      00FF9C85H   LINE      CODE     ---       #877
      00FF9C95H   LINE      CODE     ---       #878
      ---         BLOCKEND  ---      ---       LVL=0
      000010B6H   SYMBOL    EDATA    WORD      x
      000010B8H   SYMBOL    EDATA    WORD      y
      000010BAH   SYMBOL    EDATA    CHAR      dat
      000010BBH   SYMBOL    EDATA    ---       a
      000010BEH   SYMBOL    EDATA    BYTE      i
      000010BFH   SYMBOL    EDATA    WORD      x
      000010C1H   SYMBOL    EDATA    WORD      y
      000010C3H   SYMBOL    EDATA    BYTE      dat
      000010C4H   SYMBOL    EDATA    ---       a
      000010C7H   SYMBOL    EDATA    BYTE      i

      00FF8FE4H   BLOCK     CODE     ---       LVL=0
      00000F07H   SYMBOL    EDATA    WORD      x
      00000F09H   SYMBOL    EDATA    WORD      y
      00000F0BH   SYMBOL    EDATA    INT       dat
      00FF8FF0H   BLOCK     CODE     NEAR LAB  LVL=1
      00000F0DH   SYMBOL    EDATA    ---       a
      00000F12H   SYMBOL    EDATA    BYTE      i
      ---         BLOCKEND  ---      ---       LVL=1
      00FF8FE4H   LINE      CODE     ---       #946
      00FF8FF0H   LINE      CODE     ---       #947
      00FF8FF0H   LINE      CODE     ---       #950
      00FF8FFAH   LINE      CODE     ---       #952
      00FF900FH   LINE      CODE     ---       #953
      00FF901DH   LINE      CODE     ---       #954
      00FF901FH   LINE      CODE     ---       #955
      00FF9034H   LINE      CODE     ---       #957
L251 LINKER/LOCATER V4.66.93.0                                                        07/15/2024  23:31:17  PAGE 90


      00FF9043H   LINE      CODE     ---       #958
      00FF905BH   LINE      CODE     ---       #959
      00FF9073H   LINE      CODE     ---       #960
      00FF908BH   LINE      CODE     ---       #961
      00FF909CH   LINE      CODE     ---       #963
      00FF90A1H   LINE      CODE     ---       #964
      00FF90A3H   LINE      CODE     ---       #966
      00FF90E1H   LINE      CODE     ---       #967
      00FF90EEH   LINE      CODE     ---       #968
      00FF90F8H   LINE      CODE     ---       #969
      ---         BLOCKEND  ---      ---       LVL=0
      00000F13H   SYMBOL    EDATA    WORD      x
      00000F15H   SYMBOL    EDATA    WORD      y
      00000F17H   SYMBOL    EDATA    WORD      dat
      00000F19H   SYMBOL    EDATA    ---       a
      00000F1EH   SYMBOL    EDATA    BYTE      i
      00000A32H   SYMBOL    EDATA    WORD      x
      00000A34H   SYMBOL    EDATA    WORD      y
      00000A36H   SYMBOL    EDATA    LONG      dat
      00000A3AH   SYMBOL    EDATA    BYTE      num
      00000A3BH   SYMBOL    EDATA    ---       buff
      00000A5DH   SYMBOL    EDATA    BYTE      length
      000008EFH   SYMBOL    EDATA    WORD      x
      000008F1H   SYMBOL    EDATA    WORD      y
      000008F3H   SYMBOL    EDATA    FLOAT     dat
      000008F7H   SYMBOL    EDATA    BYTE      num
      000008F8H   SYMBOL    EDATA    BYTE      pointnum
      000008F9H   SYMBOL    EDATA    BYTE      length
      000008FAH   SYMBOL    EDATA    ---       buff
      0000091CH   SYMBOL    EDATA    CHAR      start
      0000091DH   SYMBOL    EDATA    CHAR      end
      0000091EH   SYMBOL    EDATA    CHAR      point

      ---         MODULE    ---      ---       SEEKFREE_IPS200_SPI
      00000C9BH   PUBLIC    EDATA    BYTE      ?ips200_draw_line?BYTE
      00000B80H   PUBLIC    EDATA    BYTE      ?ips200_show_float?BYTE
      00000BA3H   PUBLIC    EDATA    BYTE      ?ips200_show_wave?BYTE
      00000C52H   PUBLIC    EDATA    BYTE      ?ips200_show_chinese?BYTE
      000000D0H   SFRSYM    DATA     BYTE      PSW
      0000009DH   SFRSYM    DATA     BYTE      IRCBAND
      00000097H   SFRSYM    DATA     BYTE      AUXR2
      000000EFH   SFRSYM    DATA     BYTE      AUXINTIF
      000000FDH   SFRSYM    DATA     BYTE      S4CON
      000000ACH   SFRSYM    DATA     BYTE      S3CON
      0000009AH   SFRSYM    DATA     BYTE      S2CON
      000000B7H   SFRSYM    DATA     BYTE      IPH
      000000CDH   SFRSYM    DATA     BYTE      SPSTAT
      000000DDH   SFRSYM    DATA     BYTE      T4T3M
      000000C1H   SFRSYM    DATA     BYTE      WDT_CONTR
      000000DFH   SFRSYM    DATA     BYTE      IP3
      000000F4H   SFRSYM    DATA     BYTE      USBCON
      000000B5H   SFRSYM    DATA     BYTE      IP2
      000000FFH   SFRSYM    DATA     BYTE      RSTCFG
      000000C7H   SFRSYM    DATA     BYTE      IAP_CONTR
      000000F9H   SFRSYM    DATA     BYTE      LINICR
      0000008EH   SFRSYM    DATA     BYTE      AUXR
      000000AFH   SFRSYM    DATA     BYTE      IE2
      000000A0H.7 SFRSYM    DATA     BIT       P27
      00000088H   SFRSYM    DATA     BYTE      TCON
      00000089H   SFRSYM    DATA     BYTE      TMOD
      00000098H   SFRSYM    DATA     BYTE      SCON
      000000A0H.2 SFRSYM    DATA     BIT       P22
      000000A0H.1 SFRSYM    DATA     BIT       P21
      000000A0H.0 SFRSYM    DATA     BIT       P20
      000000F1H   SFRSYM    DATA     BYTE      CANICR
L251 LINKER/LOCATER V4.66.93.0                                                        07/15/2024  23:31:17  PAGE 91


      00000087H   SFRSYM    DATA     BYTE      PCON
      000000BCH   SFRSYM    DATA     BYTE      ADC_CONTR
      000000E7H   SFRSYM    DATA     BYTE      CMPCR2
      000000E6H   SFRSYM    DATA     BYTE      CMPCR1
      000000DEH   SFRSYM    DATA     BYTE      ADCCFG
      000000B8H   SFRSYM    DATA     BYTE      IP
      0000008FH   SFRSYM    DATA     BYTE      INTCLKO
      000000EEH   SFRSYM    DATA     BYTE      IP3H
      000000B6H   SFRSYM    DATA     BYTE      IP2H
      000000A8H   SFRSYM    DATA     BYTE      IE
      000000BBH   SFRSYM    DATA     BYTE      P_SW3
      000000BAH   SFRSYM    DATA     BYTE      P_SW2
      000000A2H   SFRSYM    DATA     BYTE      P_SW1
      000000CEH   SFRSYM    DATA     BYTE      SPCTL
      000000F8H   SFRSYM    DATA     BYTE      P7
      000000E8H   SFRSYM    DATA     BYTE      P6
      000000C8H   SFRSYM    DATA     BYTE      P5
      000000C0H   SFRSYM    DATA     BYTE      P4
      000000B0H   SFRSYM    DATA     BYTE      P3
      000000A0H   SFRSYM    DATA     BYTE      P2
      00000090H   SFRSYM    DATA     BYTE      P1
      00000080H   SFRSYM    DATA     BYTE      P0
      00000E0CH   SYMBOL    EDATA    WORD      ips200_pencolor
      00000E0EH   SYMBOL    EDATA    WORD      ips200_bgcolor
      00000E10H   SYMBOL    EDATA    INT       ips200_display_font
      00000E12H   SYMBOL    EDATA    INT       ips200_display_dir
      00000E14H   SYMBOL    EDATA    WORD      ips200_x_max
      00000E16H   SYMBOL    EDATA    INT       ips200_display_type
      00000E18H   SYMBOL    EDATA    WORD      ips200_y_max
      0000142AH   SYMBOL    EDATA    BYTE      dat
      00001359H   SYMBOL    EDATA    WORD      dat
      0000135BH   SYMBOL    EDATA    ---       dat1
      0000142BH   SYMBOL    EDATA    BYTE      command
      0000142CH   SYMBOL    EDATA    BYTE      dat
      000013FDH   SYMBOL    EDATA    WORD      dat
      00001178H   SYMBOL    EDATA    WORD      x1
      0000117AH   SYMBOL    EDATA    WORD      y1
      0000117CH   SYMBOL    EDATA    WORD      x2
      0000117EH   SYMBOL    EDATA    WORD      y2
      0000135DH   SYMBOL    EDATA    WORD      i
      0000135FH   SYMBOL    EDATA    WORD      j
      000012ADH   SYMBOL    EDATA    WORD      color
      000012AFH   SYMBOL    EDATA    WORD      i
      000012B1H   SYMBOL    EDATA    WORD      j
      000013FFH   SYMBOL    EDATA    INT       dir
      00001401H   SYMBOL    EDATA    INT       font
      00001361H   SYMBOL    EDATA    WORD      pen
      00001363H   SYMBOL    EDATA    WORD      bgcolor
      000012B3H   SYMBOL    EDATA    WORD      x
      000012B5H   SYMBOL    EDATA    WORD      y
      000012B7H   SYMBOL    EDATA    WORD      color
      00000C9BH   SYMBOL    EDATA    WORD      x_start
      00000C9DH   SYMBOL    EDATA    WORD      y_start
      00000C9FH   SYMBOL    EDATA    WORD      x_end
      00000CA1H   SYMBOL    EDATA    WORD      y_end
      00000CA3H   SYMBOL    EDATA    WORD      color
      00000CA5H   SYMBOL    EDATA    INT       x_dir
      00000CA7H   SYMBOL    EDATA    INT       y_dir
      00000CA9H   SYMBOL    EDATA    FLOAT     temp_rate
      00000CADH   SYMBOL    EDATA    FLOAT     temp_b
      000010C8H   SYMBOL    EDATA    WORD      x
      000010CAH   SYMBOL    EDATA    WORD      y
      000010CCH   SYMBOL    EDATA    CHAR      dat
      000010CDH   SYMBOL    EDATA    BYTE      i
      000010CEH   SYMBOL    EDATA    BYTE      j
L251 LINKER/LOCATER V4.66.93.0                                                        07/15/2024  23:31:17  PAGE 92


      000010CFH   SYMBOL    EDATA    BYTE      temp_top
      000010D0H   SYMBOL    EDATA    BYTE      temp_bottom
      00000FFFH   SYMBOL    EDATA    WORD      x
      00001001H   SYMBOL    EDATA    WORD      y
      00001003H   SYMBOL    EDATA    ---       dat
      00001007H   SYMBOL    EDATA    WORD      j
      00000BFFH   SYMBOL    EDATA    WORD      x
      00000C01H   SYMBOL    EDATA    WORD      y
      00000C03H   SYMBOL    EDATA    LONG      dat
      00000C07H   SYMBOL    EDATA    BYTE      num
      00000C08H   SYMBOL    EDATA    LONG      dat_temp
      00000C0CH   SYMBOL    EDATA    LONG      offset
      00000C10H   SYMBOL    EDATA    ---       data_buffer
      00000C1CH   SYMBOL    EDATA    WORD      x
      00000C1EH   SYMBOL    EDATA    WORD      y
      00000C20H   SYMBOL    EDATA    DWORD     dat
      00000C24H   SYMBOL    EDATA    BYTE      num
      00000C25H   SYMBOL    EDATA    DWORD     dat_temp
      00000C29H   SYMBOL    EDATA    LONG      offset
      00000C2DH   SYMBOL    EDATA    ---       data_buffer
      00000B80H   SYMBOL    EDATA    WORD      x
      00000B82H   SYMBOL    EDATA    WORD      y
      00000B84H   SYMBOL    EDATA    FLOAT     dat
      00000B88H   SYMBOL    EDATA    BYTE      num
      00000B89H   SYMBOL    EDATA    BYTE      pointnum
      00000B8AH   SYMBOL    EDATA    FLOAT     dat_temp
      00000B8EH   SYMBOL    EDATA    FLOAT     offset
      00000B92H   SYMBOL    EDATA    ---       data_buffer
      00000BA3H   SYMBOL    EDATA    WORD      x
      00000BA5H   SYMBOL    EDATA    WORD      y
      00000BA7H   SYMBOL    EDATA    ---       wave
      00000BABH   SYMBOL    EDATA    WORD      width
      00000BADH   SYMBOL    EDATA    WORD      value_max
      00000BAFH   SYMBOL    EDATA    WORD      dis_width
      00000BB1H   SYMBOL    EDATA    WORD      dis_value_max
      00000BB3H   SYMBOL    EDATA    DWORD     i
      00000BB7H   SYMBOL    EDATA    DWORD     j
      00000BBBH   SYMBOL    EDATA    DWORD     width_index
      00000BBFH   SYMBOL    EDATA    DWORD     value_max_index
      00000C52H   SYMBOL    EDATA    WORD      x
      00000C54H   SYMBOL    EDATA    WORD      y
      00000C56H   SYMBOL    EDATA    BYTE      size
      00000C57H   SYMBOL    EDATA    ---       chinese_buffer
      00000C5BH   SYMBOL    EDATA    BYTE      number
      00000C5CH   SYMBOL    EDATA    WORD      color
      00000C5EH   SYMBOL    EDATA    INT       i
      00000C60H   SYMBOL    EDATA    INT       j
      00000C62H   SYMBOL    EDATA    INT       k
      00000C64H   SYMBOL    EDATA    BYTE      temp
      00000C65H   SYMBOL    EDATA    BYTE      temp1
      00000C66H   SYMBOL    EDATA    BYTE      temp2
      00000C67H   SYMBOL    EDATA    ---       p_data

      ---         MODULE    ---      ---       SEEKFREE_MPU6050
      00000F1FH   PUBLIC    EDATA    INT       mpu6050_acc_x
      00000F21H   PUBLIC    EDATA    INT       mpu6050_acc_y
      00000F23H   PUBLIC    EDATA    INT       mpu6050_acc_z
      00000F25H   PUBLIC    EDATA    INT       mpu6050_gyro_x
      00000F27H   PUBLIC    EDATA    INT       mpu6050_gyro_y
      00000F29H   PUBLIC    EDATA    INT       mpu6050_gyro_z
      000000D0H   SFRSYM    DATA     BYTE      PSW
      0000009DH   SFRSYM    DATA     BYTE      IRCBAND
      00000097H   SFRSYM    DATA     BYTE      AUXR2
      000000EFH   SFRSYM    DATA     BYTE      AUXINTIF
      000000FDH   SFRSYM    DATA     BYTE      S4CON
L251 LINKER/LOCATER V4.66.93.0                                                        07/15/2024  23:31:17  PAGE 93


      000000ACH   SFRSYM    DATA     BYTE      S3CON
      0000009AH   SFRSYM    DATA     BYTE      S2CON
      000000B7H   SFRSYM    DATA     BYTE      IPH
      000000CDH   SFRSYM    DATA     BYTE      SPSTAT
      000000DDH   SFRSYM    DATA     BYTE      T4T3M
      000000C1H   SFRSYM    DATA     BYTE      WDT_CONTR
      000000DFH   SFRSYM    DATA     BYTE      IP3
      000000F4H   SFRSYM    DATA     BYTE      USBCON
      000000B5H   SFRSYM    DATA     BYTE      IP2
      000000FFH   SFRSYM    DATA     BYTE      RSTCFG
      000000C7H   SFRSYM    DATA     BYTE      IAP_CONTR
      000000F9H   SFRSYM    DATA     BYTE      LINICR
      0000008EH   SFRSYM    DATA     BYTE      AUXR
      000000AFH   SFRSYM    DATA     BYTE      IE2
      00000088H   SFRSYM    DATA     BYTE      TCON
      00000089H   SFRSYM    DATA     BYTE      TMOD
      000000C0H.1 SFRSYM    DATA     BIT       P41
      00000098H   SFRSYM    DATA     BYTE      SCON
      000000C0H.0 SFRSYM    DATA     BIT       P40
      000000F1H   SFRSYM    DATA     BYTE      CANICR
      00000087H   SFRSYM    DATA     BYTE      PCON
      000000BCH   SFRSYM    DATA     BYTE      ADC_CONTR
      000000E7H   SFRSYM    DATA     BYTE      CMPCR2
      000000E6H   SFRSYM    DATA     BYTE      CMPCR1
      000000DEH   SFRSYM    DATA     BYTE      ADCCFG
      000000B8H   SFRSYM    DATA     BYTE      IP
      0000008FH   SFRSYM    DATA     BYTE      INTCLKO
      000000EEH   SFRSYM    DATA     BYTE      IP3H
      000000B6H   SFRSYM    DATA     BYTE      IP2H
      000000A8H   SFRSYM    DATA     BYTE      IE
      000000BBH   SFRSYM    DATA     BYTE      P_SW3
      000000BAH   SFRSYM    DATA     BYTE      P_SW2
      000000A2H   SFRSYM    DATA     BYTE      P_SW1
      000000CEH   SFRSYM    DATA     BYTE      SPCTL
      000000F8H   SFRSYM    DATA     BYTE      P7
      000000E8H   SFRSYM    DATA     BYTE      P6
      000000C8H   SFRSYM    DATA     BYTE      P5
      000000C0H   SFRSYM    DATA     BYTE      P4
      000000B0H   SFRSYM    DATA     BYTE      P3
      000000A0H   SFRSYM    DATA     BYTE      P2
      00000090H   SFRSYM    DATA     BYTE      P1
      00000080H   SFRSYM    DATA     BYTE      P0
      00001403H   SYMBOL    EDATA    WORD      j
      0000142DH   SYMBOL    EDATA    BYTE      ack_dat
      00001405H   SYMBOL    EDATA    BYTE      c
      00001406H   SYMBOL    EDATA    BYTE      i
      000013A0H   SYMBOL    EDATA    BYTE      ack_x
      000013A1H   SYMBOL    EDATA    BYTE      i
      000013A2H   SYMBOL    EDATA    BYTE      c
      000013A3H   SYMBOL    EDATA    BYTE      dev_add
      000013A4H   SYMBOL    EDATA    BYTE      reg
      000013A5H   SYMBOL    EDATA    BYTE      dat
      000013A6H   SYMBOL    EDATA    BYTE      dev_add
      000013A7H   SYMBOL    EDATA    BYTE      reg
      000013A8H   SYMBOL    EDATA    BYTE      dat
      00001202H   SYMBOL    EDATA    BYTE      dev_add
      00001203H   SYMBOL    EDATA    BYTE      reg
      00001204H   SYMBOL    EDATA    ---       dat_add
      00001208H   SYMBOL    EDATA    BYTE      num
      000012B9H   SYMBOL    EDATA    ---       dat
      000012BFH   SYMBOL    EDATA    ---       dat

      ---         MODULE    ---      ---       SEEKFREE_OLED
      0000091FH   PUBLIC    EDATA    BYTE      ?oled_printf_float?BYTE
      0000094FH   PUBLIC    EDATA    BYTE      ?oled_printf_float_spi?BYTE
L251 LINKER/LOCATER V4.66.93.0                                                        07/15/2024  23:31:17  PAGE 94


      000000D0H   SFRSYM    DATA     BYTE      PSW
      0000009DH   SFRSYM    DATA     BYTE      IRCBAND
      00000097H   SFRSYM    DATA     BYTE      AUXR2
      000000EFH   SFRSYM    DATA     BYTE      AUXINTIF
      000000FDH   SFRSYM    DATA     BYTE      S4CON
      000000ACH   SFRSYM    DATA     BYTE      S3CON
      0000009AH   SFRSYM    DATA     BYTE      S2CON
      000000B7H   SFRSYM    DATA     BYTE      IPH
      000000CDH   SFRSYM    DATA     BYTE      SPSTAT
      000000DDH   SFRSYM    DATA     BYTE      T4T3M
      000000C1H   SFRSYM    DATA     BYTE      WDT_CONTR
      000000DFH   SFRSYM    DATA     BYTE      IP3
      000000F4H   SFRSYM    DATA     BYTE      USBCON
      000000B5H   SFRSYM    DATA     BYTE      IP2
      000000FFH   SFRSYM    DATA     BYTE      RSTCFG
      000000C7H   SFRSYM    DATA     BYTE      IAP_CONTR
      000000F9H   SFRSYM    DATA     BYTE      LINICR
      0000008EH   SFRSYM    DATA     BYTE      AUXR
      000000AFH   SFRSYM    DATA     BYTE      IE2
      000000A0H.5 SFRSYM    DATA     BIT       P25
      00000088H   SFRSYM    DATA     BYTE      TCON
      00000089H   SFRSYM    DATA     BYTE      TMOD
      000000A0H.3 SFRSYM    DATA     BIT       P23
      00000098H   SFRSYM    DATA     BYTE      SCON
      000000A0H.2 SFRSYM    DATA     BIT       P22
      000000A0H.1 SFRSYM    DATA     BIT       P21
      000000A0H.0 SFRSYM    DATA     BIT       P20
      000000F1H   SFRSYM    DATA     BYTE      CANICR
      00000087H   SFRSYM    DATA     BYTE      PCON
      000000BCH   SFRSYM    DATA     BYTE      ADC_CONTR
      000000E7H   SFRSYM    DATA     BYTE      CMPCR2
      000000E6H   SFRSYM    DATA     BYTE      CMPCR1
      000000DEH   SFRSYM    DATA     BYTE      ADCCFG
      000000B8H   SFRSYM    DATA     BYTE      IP
      0000008FH   SFRSYM    DATA     BYTE      INTCLKO
      000000EEH   SFRSYM    DATA     BYTE      IP3H
      000000B6H   SFRSYM    DATA     BYTE      IP2H
      000000A8H   SFRSYM    DATA     BYTE      IE
      000000BBH   SFRSYM    DATA     BYTE      P_SW3
      000000BAH   SFRSYM    DATA     BYTE      P_SW2
      000000A2H   SFRSYM    DATA     BYTE      P_SW1
      000000CEH   SFRSYM    DATA     BYTE      SPCTL
      000000F8H   SFRSYM    DATA     BYTE      P7
      000000E8H   SFRSYM    DATA     BYTE      P6
      000000C8H   SFRSYM    DATA     BYTE      P5
      000000C0H   SFRSYM    DATA     BYTE      P4
      000000B0H   SFRSYM    DATA     BYTE      P3
      000000A0H   SFRSYM    DATA     BYTE      P2
      00000090H   SFRSYM    DATA     BYTE      P1
      00000080H   SFRSYM    DATA     BYTE      P0
      00001407H   SYMBOL    EDATA    BYTE      dat
      00001408H   SYMBOL    EDATA    BYTE      i
      00001409H   SYMBOL    EDATA    BYTE      cmd
      0000140AH   SYMBOL    EDATA    BYTE      i
      00001180H   SYMBOL    EDATA    WORD      hex
      00001182H   SYMBOL    EDATA    ---       Print
      00001186H   SYMBOL    EDATA    BYTE      hexcheck
      00001187H   SYMBOL    EDATA    BYTE      TEMP
      0000140BH   SYMBOL    EDATA    BYTE      x
      0000140CH   SYMBOL    EDATA    BYTE      y
      000013A9H   SYMBOL    EDATA    BYTE      bmp_data
      000013AAH   SYMBOL    EDATA    BYTE      y
      000013ABH   SYMBOL    EDATA    BYTE      x
      000013ACH   SYMBOL    EDATA    BYTE      x
      000013ADH   SYMBOL    EDATA    BYTE      y
L251 LINKER/LOCATER V4.66.93.0                                                        07/15/2024  23:31:17  PAGE 95


      000013AEH   SYMBOL    EDATA    BYTE      data1
      0000140DH   SYMBOL    EDATA    BYTE      x
      0000140EH   SYMBOL    EDATA    BYTE      y
      000010D1H   SYMBOL    EDATA    BYTE      x
      000010D2H   SYMBOL    EDATA    BYTE      y
      000010D3H   SYMBOL    EDATA    ---       ch
      000010D7H   SYMBOL    EDATA    BYTE      c
      000010D8H   SYMBOL    EDATA    BYTE      i
      000010D9H   SYMBOL    EDATA    BYTE      j
      000010DAH   SYMBOL    EDATA    BYTE      x
      000010DBH   SYMBOL    EDATA    BYTE      y
      000010DCH   SYMBOL    EDATA    ---       ch
      000010E0H   SYMBOL    EDATA    BYTE      c
      000010E1H   SYMBOL    EDATA    BYTE      i
      000010E2H   SYMBOL    EDATA    BYTE      j
      00000F5BH   SYMBOL    EDATA    BYTE      x
      00000F5CH   SYMBOL    EDATA    BYTE      y
      00000F5DH   SYMBOL    EDATA    WORD      num
      00000F5FH   SYMBOL    EDATA    ---       ch
      00000F66H   SYMBOL    EDATA    BYTE      x
      00000F67H   SYMBOL    EDATA    BYTE      y
      00000F68H   SYMBOL    EDATA    INT       num
      00000F6AH   SYMBOL    EDATA    ---       ch
      00000A5EH   SYMBOL    EDATA    WORD      x
      00000A60H   SYMBOL    EDATA    WORD      y
      00000A62H   SYMBOL    EDATA    LONG      dat
      00000A66H   SYMBOL    EDATA    BYTE      num
      00000A67H   SYMBOL    EDATA    ---       buff
      00000A89H   SYMBOL    EDATA    BYTE      length
      0000091FH   SYMBOL    EDATA    WORD      x
      00000921H   SYMBOL    EDATA    WORD      y
      00000923H   SYMBOL    EDATA    FLOAT     dat
      00000927H   SYMBOL    EDATA    BYTE      num
      00000928H   SYMBOL    EDATA    BYTE      pointnum
      00000929H   SYMBOL    EDATA    BYTE      length
      0000092AH   SYMBOL    EDATA    ---       buff
      0000094CH   SYMBOL    EDATA    CHAR      start
      0000094DH   SYMBOL    EDATA    CHAR      end
      0000094EH   SYMBOL    EDATA    CHAR      point
      00000D3AH   SYMBOL    EDATA    WORD      high
      00000D3CH   SYMBOL    EDATA    WORD      width
      00000D3EH   SYMBOL    EDATA    ---       p
      00000D42H   SYMBOL    EDATA    BYTE      value
      00000D43H   SYMBOL    EDATA    WORD      i
      00000D45H   SYMBOL    EDATA    WORD      j
      00000D47H   SYMBOL    EDATA    WORD      temp
      00000D49H   SYMBOL    EDATA    WORD      temp1
      00000D4BH   SYMBOL    EDATA    BYTE      dat
      00000E1AH   SYMBOL    EDATA    BYTE      x
      00000E1BH   SYMBOL    EDATA    BYTE      y
      00000E1CH   SYMBOL    EDATA    BYTE      size
      00000E1DH   SYMBOL    EDATA    ---       p
      00000E21H   SYMBOL    EDATA    BYTE      len
      00000E22H   SYMBOL    EDATA    WORD      i
      00000E24H   SYMBOL    EDATA    WORD      j
      00000E26H   SYMBOL    EDATA    WORD      k
      0000142EH   SYMBOL    EDATA    BYTE      dat
      0000142FH   SYMBOL    EDATA    BYTE      cmd
      00001188H   SYMBOL    EDATA    WORD      hex
      0000118AH   SYMBOL    EDATA    ---       Print
      0000118EH   SYMBOL    EDATA    BYTE      hexcheck
      0000118FH   SYMBOL    EDATA    BYTE      TEMP
      0000140FH   SYMBOL    EDATA    BYTE      x
      00001410H   SYMBOL    EDATA    BYTE      y
      000013AFH   SYMBOL    EDATA    BYTE      bmp_data
L251 LINKER/LOCATER V4.66.93.0                                                        07/15/2024  23:31:17  PAGE 96


      000013B0H   SYMBOL    EDATA    BYTE      y
      000013B1H   SYMBOL    EDATA    BYTE      x
      000013B2H   SYMBOL    EDATA    BYTE      x
      000013B3H   SYMBOL    EDATA    BYTE      y
      000013B4H   SYMBOL    EDATA    BYTE      data1
      00001411H   SYMBOL    EDATA    BYTE      x
      00001412H   SYMBOL    EDATA    BYTE      y
      000010E3H   SYMBOL    EDATA    BYTE      x
      000010E4H   SYMBOL    EDATA    BYTE      y
      000010E5H   SYMBOL    EDATA    ---       ch
      000010E9H   SYMBOL    EDATA    BYTE      c
      000010EAH   SYMBOL    EDATA    BYTE      i
      000010EBH   SYMBOL    EDATA    BYTE      j
      000010ECH   SYMBOL    EDATA    BYTE      x
      000010EDH   SYMBOL    EDATA    BYTE      y
      000010EEH   SYMBOL    EDATA    ---       ch
      000010F2H   SYMBOL    EDATA    BYTE      c
      000010F3H   SYMBOL    EDATA    BYTE      i
      000010F4H   SYMBOL    EDATA    BYTE      j
      00000F71H   SYMBOL    EDATA    BYTE      x
      00000F72H   SYMBOL    EDATA    BYTE      y
      00000F73H   SYMBOL    EDATA    WORD      num
      00000F75H   SYMBOL    EDATA    ---       ch
      00000F7CH   SYMBOL    EDATA    BYTE      x
      00000F7DH   SYMBOL    EDATA    BYTE      y
      00000F7EH   SYMBOL    EDATA    INT       num
      00000F80H   SYMBOL    EDATA    ---       ch
      00000A8AH   SYMBOL    EDATA    WORD      x
      00000A8CH   SYMBOL    EDATA    WORD      y
      00000A8EH   SYMBOL    EDATA    LONG      dat
      00000A92H   SYMBOL    EDATA    BYTE      num
      00000A93H   SYMBOL    EDATA    ---       buff
      00000AB5H   SYMBOL    EDATA    BYTE      length
      0000094FH   SYMBOL    EDATA    WORD      x
      00000951H   SYMBOL    EDATA    WORD      y
      00000953H   SYMBOL    EDATA    FLOAT     dat
      00000957H   SYMBOL    EDATA    BYTE      num
      00000958H   SYMBOL    EDATA    BYTE      pointnum
      00000959H   SYMBOL    EDATA    BYTE      length
      0000095AH   SYMBOL    EDATA    ---       buff
      0000097CH   SYMBOL    EDATA    CHAR      start
      0000097DH   SYMBOL    EDATA    CHAR      end
      0000097EH   SYMBOL    EDATA    CHAR      point
      00000D4CH   SYMBOL    EDATA    WORD      high
      00000D4EH   SYMBOL    EDATA    WORD      width
      00000D50H   SYMBOL    EDATA    ---       p
      00000D54H   SYMBOL    EDATA    BYTE      value
      00000D55H   SYMBOL    EDATA    WORD      i
      00000D57H   SYMBOL    EDATA    WORD      j
      00000D59H   SYMBOL    EDATA    WORD      temp
      00000D5BH   SYMBOL    EDATA    WORD      temp1
      00000D5DH   SYMBOL    EDATA    BYTE      dat
      00000E28H   SYMBOL    EDATA    BYTE      x
      00000E29H   SYMBOL    EDATA    BYTE      y
      00000E2AH   SYMBOL    EDATA    BYTE      size
      00000E2BH   SYMBOL    EDATA    ---       p
      00000E2FH   SYMBOL    EDATA    BYTE      len
      00000E30H   SYMBOL    EDATA    WORD      i
      00000E32H   SYMBOL    EDATA    WORD      j
      00000E34H   SYMBOL    EDATA    WORD      k

      ---         MODULE    ---      ---       SEEKFREE_TSL1401
      00000008H   PUBLIC    EDATA    BYTE      tsl1401_finish_flag
      00000009H   PUBLIC    EDATA    ---       ccd_data_ch1
      00000109H   PUBLIC    EDATA    ---       ccd_data_ch2
L251 LINKER/LOCATER V4.66.93.0                                                        07/15/2024  23:31:17  PAGE 97


      000000D0H   SFRSYM    DATA     BYTE      PSW
      0000009DH   SFRSYM    DATA     BYTE      IRCBAND
      00000097H   SFRSYM    DATA     BYTE      AUXR2
      000000EFH   SFRSYM    DATA     BYTE      AUXINTIF
      000000FDH   SFRSYM    DATA     BYTE      S4CON
      000000ACH   SFRSYM    DATA     BYTE      S3CON
      0000009AH   SFRSYM    DATA     BYTE      S2CON
      000000B7H   SFRSYM    DATA     BYTE      IPH
      000000CDH   SFRSYM    DATA     BYTE      SPSTAT
      000000DDH   SFRSYM    DATA     BYTE      T4T3M
      000000C1H   SFRSYM    DATA     BYTE      WDT_CONTR
      000000DFH   SFRSYM    DATA     BYTE      IP3
      000000F4H   SFRSYM    DATA     BYTE      USBCON
      000000B5H   SFRSYM    DATA     BYTE      IP2
      000000FFH   SFRSYM    DATA     BYTE      RSTCFG
      000000C7H   SFRSYM    DATA     BYTE      IAP_CONTR
      000000F9H   SFRSYM    DATA     BYTE      LINICR
      0000008EH   SFRSYM    DATA     BYTE      AUXR
      000000AFH   SFRSYM    DATA     BYTE      IE2
      00000080H.7 SFRSYM    DATA     BIT       P07
      00000088H   SFRSYM    DATA     BYTE      TCON
      00000089H   SFRSYM    DATA     BYTE      TMOD
      00000098H   SFRSYM    DATA     BYTE      SCON
      00000080H.2 SFRSYM    DATA     BIT       P02
      000000F1H   SFRSYM    DATA     BYTE      CANICR
      00000087H   SFRSYM    DATA     BYTE      PCON
      000000BCH   SFRSYM    DATA     BYTE      ADC_CONTR
      000000E7H   SFRSYM    DATA     BYTE      CMPCR2
      000000E6H   SFRSYM    DATA     BYTE      CMPCR1
      000000DEH   SFRSYM    DATA     BYTE      ADCCFG
      000000B8H   SFRSYM    DATA     BYTE      IP
      0000008FH   SFRSYM    DATA     BYTE      INTCLKO
      000000EEH   SFRSYM    DATA     BYTE      IP3H
      000000B6H   SFRSYM    DATA     BYTE      IP2H
      000000A8H   SFRSYM    DATA     BYTE      IE
      000000BBH   SFRSYM    DATA     BYTE      P_SW3
      000000BAH   SFRSYM    DATA     BYTE      P_SW2
      000000A2H   SFRSYM    DATA     BYTE      P_SW1
      000000CEH   SFRSYM    DATA     BYTE      SPCTL
      000000F8H   SFRSYM    DATA     BYTE      P7
      000000E8H   SFRSYM    DATA     BYTE      P6
      000000C8H   SFRSYM    DATA     BYTE      P5
      000000C0H   SFRSYM    DATA     BYTE      P4
      000000B0H   SFRSYM    DATA     BYTE      P3
      000000A0H   SFRSYM    DATA     BYTE      P2
      00000090H   SFRSYM    DATA     BYTE      P1
      00000080H   SFRSYM    DATA     BYTE      P0
      00001209H   SYMBOL    EDATA    INT       uart_n
      0000120BH   SYMBOL    EDATA    ---       dat
      0000120FH   SYMBOL    EDATA    BYTE      i
      00001430H   SYMBOL    EDATA    BYTE      i

      ---         MODULE    ---      ---       SEEKFREE_VIRSCO
      00001009H   PUBLIC    EDATA    ---       virtual_scope_data
      00000E36H   PUBLIC    EDATA    BYTE      ?data_conversion?BYTE
      000000D0H   SFRSYM    DATA     BYTE      PSW
      0000009DH   SFRSYM    DATA     BYTE      IRCBAND
      00000097H   SFRSYM    DATA     BYTE      AUXR2
      000000EFH   SFRSYM    DATA     BYTE      AUXINTIF
      000000FDH   SFRSYM    DATA     BYTE      S4CON
      000000ACH   SFRSYM    DATA     BYTE      S3CON
      0000009AH   SFRSYM    DATA     BYTE      S2CON
      000000B7H   SFRSYM    DATA     BYTE      IPH
      000000CDH   SFRSYM    DATA     BYTE      SPSTAT
      000000DDH   SFRSYM    DATA     BYTE      T4T3M
L251 LINKER/LOCATER V4.66.93.0                                                        07/15/2024  23:31:17  PAGE 98


      000000C1H   SFRSYM    DATA     BYTE      WDT_CONTR
      000000DFH   SFRSYM    DATA     BYTE      IP3
      000000F4H   SFRSYM    DATA     BYTE      USBCON
      000000B5H   SFRSYM    DATA     BYTE      IP2
      000000FFH   SFRSYM    DATA     BYTE      RSTCFG
      000000C7H   SFRSYM    DATA     BYTE      IAP_CONTR
      000000F9H   SFRSYM    DATA     BYTE      LINICR
      0000008EH   SFRSYM    DATA     BYTE      AUXR
      000000AFH   SFRSYM    DATA     BYTE      IE2
      00000088H   SFRSYM    DATA     BYTE      TCON
      00000089H   SFRSYM    DATA     BYTE      TMOD
      00000098H   SFRSYM    DATA     BYTE      SCON
      000000F1H   SFRSYM    DATA     BYTE      CANICR
      00000087H   SFRSYM    DATA     BYTE      PCON
      000000BCH   SFRSYM    DATA     BYTE      ADC_CONTR
      000000E7H   SFRSYM    DATA     BYTE      CMPCR2
      000000E6H   SFRSYM    DATA     BYTE      CMPCR1
      000000DEH   SFRSYM    DATA     BYTE      ADCCFG
      000000B8H   SFRSYM    DATA     BYTE      IP
      0000008FH   SFRSYM    DATA     BYTE      INTCLKO
      000000EEH   SFRSYM    DATA     BYTE      IP3H
      000000B6H   SFRSYM    DATA     BYTE      IP2H
      000000A8H   SFRSYM    DATA     BYTE      IE
      000000BBH   SFRSYM    DATA     BYTE      P_SW3
      000000BAH   SFRSYM    DATA     BYTE      P_SW2
      000000A2H   SFRSYM    DATA     BYTE      P_SW1
      000000CEH   SFRSYM    DATA     BYTE      SPCTL
      000000F8H   SFRSYM    DATA     BYTE      P7
      000000E8H   SFRSYM    DATA     BYTE      P6
      000000C8H   SFRSYM    DATA     BYTE      P5
      000000C0H   SFRSYM    DATA     BYTE      P4
      000000B0H   SFRSYM    DATA     BYTE      P3
      000000A0H   SFRSYM    DATA     BYTE      P2
      00000090H   SFRSYM    DATA     BYTE      P1
      00000080H   SFRSYM    DATA     BYTE      P0
      000010F5H   SYMBOL    EDATA    ---       Buf
      000010F9H   SYMBOL    EDATA    BYTE      CRC_CNT
      000010FAH   SYMBOL    EDATA    WORD      CRC_Temp
      000010FCH   SYMBOL    EDATA    BYTE      i
      000010FDH   SYMBOL    EDATA    BYTE      j
      00000E36H   SYMBOL    EDATA    INT       data1
      00000E38H   SYMBOL    EDATA    INT       data2
      00000E3AH   SYMBOL    EDATA    INT       data3
      00000E3CH   SYMBOL    EDATA    INT       data4
      00000E3EH   SYMBOL    EDATA    ---       dat
      00000E42H   SYMBOL    EDATA    WORD      CRC16

      ---         MODULE    ---      ---       SEEKFREE_WIRELESS
      00FFA3D9H   PUBLIC    CODE     ---       wireless_uart_callback
      000000D0H   SFRSYM    DATA     BYTE      PSW
      0000009DH   SFRSYM    DATA     BYTE      IRCBAND
      00000097H   SFRSYM    DATA     BYTE      AUXR2
      000000EFH   SFRSYM    DATA     BYTE      AUXINTIF
      000000FDH   SFRSYM    DATA     BYTE      S4CON
      000000ACH   SFRSYM    DATA     BYTE      S3CON
      0000009AH   SFRSYM    DATA     BYTE      S2CON
      000000FEH   SFRSYM    DATA     BYTE      S4BUF
      000000B7H   SFRSYM    DATA     BYTE      IPH
      000000CDH   SFRSYM    DATA     BYTE      SPSTAT
      000000DDH   SFRSYM    DATA     BYTE      T4T3M
      000000C1H   SFRSYM    DATA     BYTE      WDT_CONTR
      000000DFH   SFRSYM    DATA     BYTE      IP3
      000000F4H   SFRSYM    DATA     BYTE      USBCON
      000000B5H   SFRSYM    DATA     BYTE      IP2
      000000FFH   SFRSYM    DATA     BYTE      RSTCFG
L251 LINKER/LOCATER V4.66.93.0                                                        07/15/2024  23:31:17  PAGE 99


      000000C7H   SFRSYM    DATA     BYTE      IAP_CONTR
      000000F9H   SFRSYM    DATA     BYTE      LINICR
      0000008EH   SFRSYM    DATA     BYTE      AUXR
      000000AFH   SFRSYM    DATA     BYTE      IE2
      00000080H.7 SFRSYM    DATA     BIT       P07
      00000088H   SFRSYM    DATA     BYTE      TCON
      00000089H   SFRSYM    DATA     BYTE      TMOD
      00000098H   SFRSYM    DATA     BYTE      SCON
      000000F1H   SFRSYM    DATA     BYTE      CANICR
      00000087H   SFRSYM    DATA     BYTE      PCON
      000000BCH   SFRSYM    DATA     BYTE      ADC_CONTR
      000000E7H   SFRSYM    DATA     BYTE      CMPCR2
      000000E6H   SFRSYM    DATA     BYTE      CMPCR1
      000000DEH   SFRSYM    DATA     BYTE      ADCCFG
      000000B8H   SFRSYM    DATA     BYTE      IP
      0000008FH   SFRSYM    DATA     BYTE      INTCLKO
      000000EEH   SFRSYM    DATA     BYTE      IP3H
      000000B6H   SFRSYM    DATA     BYTE      IP2H
      000000A8H   SFRSYM    DATA     BYTE      IE
      000000BBH   SFRSYM    DATA     BYTE      P_SW3
      000000BAH   SFRSYM    DATA     BYTE      P_SW2
      000000A2H   SFRSYM    DATA     BYTE      P_SW1
      000000CEH   SFRSYM    DATA     BYTE      SPCTL
      000000F8H   SFRSYM    DATA     BYTE      P7
      000000E8H   SFRSYM    DATA     BYTE      P6
      000000C8H   SFRSYM    DATA     BYTE      P5
      000000C0H   SFRSYM    DATA     BYTE      P4
      000000B0H   SFRSYM    DATA     BYTE      P3
      000000A0H   SFRSYM    DATA     BYTE      P2
      00000090H   SFRSYM    DATA     BYTE      P1
      00000080H   SFRSYM    DATA     BYTE      P0
      00000743H   SYMBOL    EDATA    BYTE      wireless_uart_data
      00000744H   SYMBOL    EDATA    ---       wireless_uart_fifo
      0000075BH   SYMBOL    EDATA    ---       wireless_uart_buffer

      00FFA3D9H   BLOCK     CODE     ---       LVL=0
      00FFA3D9H   LINE      CODE     ---       #48
      00FFA3D9H   LINE      CODE     ---       #51
      00FFA3DFH   LINE      CODE     ---       #52
      00FFA3F2H   LINE      CODE     ---       #53
      ---         BLOCKEND  ---      ---       LVL=0
      00001431H   SYMBOL    EDATA    BYTE      dat
      00001190H   SYMBOL    EDATA    ---       buff
      00001194H   SYMBOL    EDATA    DWORD     len
      00000F2BH   SYMBOL    EDATA    ---       buff
      00000F2FH   SYMBOL    EDATA    DWORD     len
      00000F33H   SYMBOL    EDATA    DWORD     data_len

      ---         MODULE    ---      ---       init
      00FF92D3H   PUBLIC    CODE     ---       gyroOffsetInit
      00FF8C72H   PUBLIC    CODE     ---       get_adc
      00FF89D8H   PUBLIC    CODE     ---       car_pre_init
      000004D2H   PUBLIC    EDATA    FLOAT     acc_x
      000004D6H   PUBLIC    EDATA    FLOAT     acc_y
      000004DAH   PUBLIC    EDATA    FLOAT     acc_z
      000004DEH   PUBLIC    EDATA    FLOAT     alpha
      000004E2H   PUBLIC    EDATA    FLOAT     x_inc
      000004E6H   PUBLIC    EDATA    FLOAT     y_inc
      000004EAH   PUBLIC    EDATA    FLOAT     z_inc
      000004EEH   PUBLIC    EDATA    FLOAT     last_acc_x
      000004F2H   PUBLIC    EDATA    FLOAT     last_acc_y
      000004F6H   PUBLIC    EDATA    FLOAT     last_acc_z
      000004FAH   PUBLIC    EDATA    FLOAT     gyro_x
      000004FEH   PUBLIC    EDATA    FLOAT     gyro_y
      00000502H   PUBLIC    EDATA    FLOAT     gyro_z
L251 LINKER/LOCATER V4.66.93.0                                                        07/15/2024  23:31:17  PAGE 100


      00000506H   PUBLIC    EDATA    FLOAT     l_pwm
      0000050AH   PUBLIC    EDATA    FLOAT     r_pwm
      0000050EH   PUBLIC    EDATA    ---       adc
      0000053AH   PUBLIC    EDATA    FLOAT     last_gyro_x
      0000053EH   PUBLIC    EDATA    INT       init_gyro_x
      00000540H   PUBLIC    EDATA    FLOAT     last_gyro_y
      00000544H   PUBLIC    EDATA    INT       init_gyro_y
      00000546H   PUBLIC    EDATA    FLOAT     last_gyro_z
      0000054AH   PUBLIC    EDATA    INT       init_gyro_z
      0000054CH   PUBLIC    EDATA    FLOAT     last_l_pwm
      00000550H   PUBLIC    EDATA    FLOAT     last_r_pwm
      00000554H   PUBLIC    EDATA    INT       text
      00000556H   PUBLIC    EDATA    FLOAT     new_gyro_x
      0000055AH   PUBLIC    EDATA    FLOAT     new_gyro_y
      0000055EH   PUBLIC    EDATA    FLOAT     new_gyro_z
      00000562H   PUBLIC    EDATA    CHAR      a
      00000563H   PUBLIC    EDATA    FLOAT     angle_x
      00000567H   PUBLIC    EDATA    FLOAT     Xdata
      0000056BH   PUBLIC    EDATA    FLOAT     Ydata
      0000056FH   PUBLIC    EDATA    FLOAT     Zdata
      000000D0H   SFRSYM    DATA     BYTE      PSW
      0000009DH   SFRSYM    DATA     BYTE      IRCBAND
      00000097H   SFRSYM    DATA     BYTE      AUXR2
      000000EFH   SFRSYM    DATA     BYTE      AUXINTIF
      000000FDH   SFRSYM    DATA     BYTE      S4CON
      000000ACH   SFRSYM    DATA     BYTE      S3CON
      0000009AH   SFRSYM    DATA     BYTE      S2CON
      000000B7H   SFRSYM    DATA     BYTE      IPH
      000000CDH   SFRSYM    DATA     BYTE      SPSTAT
      000000DDH   SFRSYM    DATA     BYTE      T4T3M
      000000C1H   SFRSYM    DATA     BYTE      WDT_CONTR
      000000DFH   SFRSYM    DATA     BYTE      IP3
      000000F4H   SFRSYM    DATA     BYTE      USBCON
      000000B5H   SFRSYM    DATA     BYTE      IP2
      000000FFH   SFRSYM    DATA     BYTE      RSTCFG
      000000C7H   SFRSYM    DATA     BYTE      IAP_CONTR
      000000F9H   SFRSYM    DATA     BYTE      LINICR
      0000008EH   SFRSYM    DATA     BYTE      AUXR
      000000AFH   SFRSYM    DATA     BYTE      IE2
      00000088H   SFRSYM    DATA     BYTE      TCON
      00000089H   SFRSYM    DATA     BYTE      TMOD
      00000098H   SFRSYM    DATA     BYTE      SCON
      000000F1H   SFRSYM    DATA     BYTE      CANICR
      00000087H   SFRSYM    DATA     BYTE      PCON
      000000BCH   SFRSYM    DATA     BYTE      ADC_CONTR
      000000E7H   SFRSYM    DATA     BYTE      CMPCR2
      000000E6H   SFRSYM    DATA     BYTE      CMPCR1
      000000DEH   SFRSYM    DATA     BYTE      ADCCFG
      000000B8H   SFRSYM    DATA     BYTE      IP
      0000008FH   SFRSYM    DATA     BYTE      INTCLKO
      000000EEH   SFRSYM    DATA     BYTE      IP3H
      000000B6H   SFRSYM    DATA     BYTE      IP2H
      000000A8H   SFRSYM    DATA     BYTE      IE
      000000BBH   SFRSYM    DATA     BYTE      P_SW3
      000000BAH   SFRSYM    DATA     BYTE      P_SW2
      000000A2H   SFRSYM    DATA     BYTE      P_SW1
      000000CEH   SFRSYM    DATA     BYTE      SPCTL
      000000F8H   SFRSYM    DATA     BYTE      P7
      000000E8H   SFRSYM    DATA     BYTE      P6
      000000C8H   SFRSYM    DATA     BYTE      P5
      000000C0H   SFRSYM    DATA     BYTE      P4
      000000B0H   SFRSYM    DATA     BYTE      P3
      000000A0H   SFRSYM    DATA     BYTE      P2
      00000090H   SFRSYM    DATA     BYTE      P1
      00000080H   SFRSYM    DATA     BYTE      P0
L251 LINKER/LOCATER V4.66.93.0                                                        07/15/2024  23:31:17  PAGE 101


      00FFACD6H   SYMBOL    HCONST   ---       ?tpl?0001

      00FF89D8H   BLOCK     CODE     ---       LVL=0
      00FF89D8H   LINE      CODE     ---       #29
      00FF89D8H   LINE      CODE     ---       #33
      00FF89DFH   LINE      CODE     ---       #34
      00FF89E6H   LINE      CODE     ---       #35
      00FF89EDH   LINE      CODE     ---       #36
      00FF89F4H   LINE      CODE     ---       #37
      00FF89FBH   LINE      CODE     ---       #40
      00FF8A1CH   LINE      CODE     ---       #41
      00FF8A3DH   LINE      CODE     ---       #45
      00FF8A5EH   LINE      CODE     ---       #47
      00FF8A89H   LINE      CODE     ---       #51
      00FF8A92H   LINE      CODE     ---       #52
      00FF8A9BH   LINE      CODE     ---       #53
      00FF8AA4H   LINE      CODE     ---       #54
      00FF8AADH   LINE      CODE     ---       #55
      00FF8AB6H   LINE      CODE     ---       #56
      00FF8ABFH   LINE      CODE     ---       #57
      00FF8AC8H   LINE      CODE     ---       #58
      00FF8AD1H   LINE      CODE     ---       #59
      00FF8AD8H   LINE      CODE     ---       #68
      00FF8AE9H   LINE      CODE     ---       #69
      00FF8AF8H   LINE      CODE     ---       #70
      00FF8AFFH   LINE      CODE     ---       #76
      00FF8B02H   LINE      CODE     ---       #79
      00FF8B07H   LINE      CODE     ---       #80
      00FF8B0EH   LINE      CODE     ---       #81
      00FF8B15H   LINE      CODE     ---       #87
      00FF8B1BH   LINE      CODE     ---       #88
      00FF8B1EH   LINE      CODE     ---       #89
      00FF8B21H   LINE      CODE     ---       #91
      00FF8B29H   LINE      CODE     ---       #92
      00FF8B29H   LINE      CODE     ---       #93
      ---         BLOCKEND  ---      ---       LVL=0

      00FF8C72H   BLOCK     CODE     ---       LVL=0
      00000D5EH   SYMBOL    EDATA    ---       adc_get_value
      00000D6CH   SYMBOL    EDATA    INT       i
      00000D6EH   SYMBOL    EDATA    INT       k
      00FF8C72H   LINE      CODE     ---       #96
      00FF8C72H   LINE      CODE     ---       #97
      00FF8C72H   LINE      CODE     ---       #98
      00FF8C83H   LINE      CODE     ---       #99
      00FF8C8FH   LINE      CODE     ---       #100
      00FF8C98H   LINE      CODE     ---       #102
      00FF8CAFH   LINE      CODE     ---       #103
      00FF8CC6H   LINE      CODE     ---       #104
      00FF8CDDH   LINE      CODE     ---       #105
      00FF8CF4H   LINE      CODE     ---       #106
      00FF8D0BH   LINE      CODE     ---       #107
      00FF8D22H   LINE      CODE     ---       #108
      00FF8D39H   LINE      CODE     ---       #109
      00FF8D56H   LINE      CODE     ---       #110
      00FF8D5EH   LINE      CODE     ---       #112
      00FF8D94H   LINE      CODE     ---       #113
      00FF8DAEH   LINE      CODE     ---       #114
      ---         BLOCKEND  ---      ---       LVL=0

      00FF92D3H   BLOCK     CODE     ---       LVL=0
      00FF92D3H   LINE      CODE     ---       #223
      00FF92D3H   LINE      CODE     ---       #225
      00FF92DDH   LINE      CODE     ---       #228
      00FF92E7H   LINE      CODE     ---       #230
L251 LINKER/LOCATER V4.66.93.0                                                        07/15/2024  23:31:17  PAGE 102


      00FF92EAH   LINE      CODE     ---       #231
      00FF92EDH   LINE      CODE     ---       #232
      00FF9303H   LINE      CODE     ---       #235
      00FF930AH   LINE      CODE     ---       #236
      00FF9317H   LINE      CODE     ---       #239
      00FF931AH   LINE      CODE     ---       #240
      00FF9326H   LINE      CODE     ---       #242
      00FF9339H   LINE      CODE     ---       #246
      00FF933FH   LINE      CODE     ---       #247
      00FF934CH   LINE      CODE     ---       #248
      00FF9354H   LINE      CODE     ---       #251
      00FF9356H   LINE      CODE     ---       #254
      00FF9362H   LINE      CODE     ---       #257
      00FF9365H   LINE      CODE     ---       #258
      00FF9368H   LINE      CODE     ---       #259
      00FF93A8H   LINE      CODE     ---       #260
      00FF93ACH   LINE      CODE     ---       #291
      ---         BLOCKEND  ---      ---       LVL=0

      ---         MODULE    ---      ---       motor
      00FF68F8H   PUBLIC    CODE     ---       motor
      00FFA1B9H   PUBLIC    CODE     ---       forwardfeed_turn
      00FFA1EBH   PUBLIC    CODE     ---       forwardfeed_L
      00FFA219H   PUBLIC    CODE     ---       forwardfeed_R
      00FF374DH   PUBLIC    CODE     ---       multistage_pid
      0000079BH   PUBLIC    EDATA    FLOAT     angle_speed
      0000079FH   PUBLIC    EDATA    FLOAT     r_error
      000007A3H   PUBLIC    EDATA    FLOAT     l_endspeed
      000007A7H   PUBLIC    EDATA    FLOAT     last_in_turn
      000007ABH   PUBLIC    EDATA    FLOAT     last_in_L
      000007AFH   PUBLIC    EDATA    FLOAT     r_endspeed
      000007B3H   PUBLIC    EDATA    FLOAT     last_in_R
      000007B7H   PUBLIC    EDATA    INT       l_encoder
      000007B9H   PUBLIC    EDATA    INT       r_encoder
      000007BBH   PUBLIC    EDATA    FLOAT     turn_speed
      000007BFH   PUBLIC    EDATA    FLOAT     l_target_speed
      000007C3H   PUBLIC    EDATA    FLOAT     r_target_speed
      000007C7H   PUBLIC    EDATA    FLOAT     T
      000007CBH   PUBLIC    EDATA    CHAR      turn_count
      000007CCH   PUBLIC    EDATA    FLOAT     l_speed
      000007D0H   PUBLIC    EDATA    FLOAT     r_speed
      000007D4H   PUBLIC    EDATA    FLOAT     forward_flag
      000007D8H   PUBLIC    EDATA    FLOAT     l_error
      000007DCH   PUBLIC    EDATA    FLOAT     set_turn
      000007E0H   PUBLIC    EDATA    FLOAT     r_last_speed
      000000D0H   SFRSYM    DATA     BYTE      PSW
      0000009DH   SFRSYM    DATA     BYTE      IRCBAND
      00000097H   SFRSYM    DATA     BYTE      AUXR2
      000000EFH   SFRSYM    DATA     BYTE      AUXINTIF
      000000FDH   SFRSYM    DATA     BYTE      S4CON
      000000ACH   SFRSYM    DATA     BYTE      S3CON
      0000009AH   SFRSYM    DATA     BYTE      S2CON
      000000B7H   SFRSYM    DATA     BYTE      IPH
      000000CDH   SFRSYM    DATA     BYTE      SPSTAT
      000000DDH   SFRSYM    DATA     BYTE      T4T3M
      000000C1H   SFRSYM    DATA     BYTE      WDT_CONTR
      000000DFH   SFRSYM    DATA     BYTE      IP3
      000000F4H   SFRSYM    DATA     BYTE      USBCON
      000000B5H   SFRSYM    DATA     BYTE      IP2
      000000FFH   SFRSYM    DATA     BYTE      RSTCFG
      000000C7H   SFRSYM    DATA     BYTE      IAP_CONTR
      000000F9H   SFRSYM    DATA     BYTE      LINICR
      0000008EH   SFRSYM    DATA     BYTE      AUXR
      000000AFH   SFRSYM    DATA     BYTE      IE2
      000000A0H.6 SFRSYM    DATA     BIT       P26
L251 LINKER/LOCATER V4.66.93.0                                                        07/15/2024  23:31:17  PAGE 103


      000000B0H.5 SFRSYM    DATA     BIT       P35
      000000C8H.3 SFRSYM    DATA     BIT       P53
      000000A0H.4 SFRSYM    DATA     BIT       P24
      00000088H   SFRSYM    DATA     BYTE      TCON
      00000089H   SFRSYM    DATA     BYTE      TMOD
      00000098H   SFRSYM    DATA     BYTE      SCON
      000000F1H   SFRSYM    DATA     BYTE      CANICR
      00000087H   SFRSYM    DATA     BYTE      PCON
      000000BCH   SFRSYM    DATA     BYTE      ADC_CONTR
      000000E7H   SFRSYM    DATA     BYTE      CMPCR2
      000000E6H   SFRSYM    DATA     BYTE      CMPCR1
      000000DEH   SFRSYM    DATA     BYTE      ADCCFG
      000000B8H   SFRSYM    DATA     BYTE      IP
      0000008FH   SFRSYM    DATA     BYTE      INTCLKO
      000000EEH   SFRSYM    DATA     BYTE      IP3H
      000000B6H   SFRSYM    DATA     BYTE      IP2H
      000000A8H   SFRSYM    DATA     BYTE      IE
      000000BBH   SFRSYM    DATA     BYTE      P_SW3
      000000BAH   SFRSYM    DATA     BYTE      P_SW2
      000000A2H   SFRSYM    DATA     BYTE      P_SW1
      000000CEH   SFRSYM    DATA     BYTE      SPCTL
      000000F8H   SFRSYM    DATA     BYTE      P7
      000000E8H   SFRSYM    DATA     BYTE      P6
      000000C8H   SFRSYM    DATA     BYTE      P5
      000000C0H   SFRSYM    DATA     BYTE      P4
      000000B0H   SFRSYM    DATA     BYTE      P3
      000000A0H   SFRSYM    DATA     BYTE      P2
      00000090H   SFRSYM    DATA     BYTE      P1
      00000080H   SFRSYM    DATA     BYTE      P0

      00FF68F8H   BLOCK     CODE     ---       LVL=0
      00FF68F8H   LINE      CODE     ---       #32
      00FF68FAH   LINE      CODE     ---       #34
      00FF6903H   LINE      CODE     ---       #35
      00FF690EH   LINE      CODE     ---       #37
      00FF6913H   LINE      CODE     ---       #38
      00FF691AH   LINE      CODE     ---       #53
      00FF6923H   LINE      CODE     ---       #55
      00FF6942H   LINE      CODE     ---       #56
      00FF6944H   LINE      CODE     ---       #59
      00FF6963H   LINE      CODE     ---       #60
      00FF6963H   LINE      CODE     ---       #61
      00FF696CH   LINE      CODE     ---       #63
      00FF698BH   LINE      CODE     ---       #64
      00FF698DH   LINE      CODE     ---       #67
      00FF69ACH   LINE      CODE     ---       #68
      00FF69ACH   LINE      CODE     ---       #69
      00FF69D7H   LINE      CODE     ---       #77
      00FF69E1H   LINE      CODE     ---       #79
      00FF69EEH   LINE      CODE     ---       #81
      00FF69F0H   LINE      CODE     ---       #82
      00FF69FAH   LINE      CODE     ---       #86
      00FF6A0CH   LINE      CODE     ---       #90
      00FF6A11H   LINE      CODE     ---       #91
      00FF6A11H   LINE      CODE     ---       #100
      00FF6A39H   LINE      CODE     ---       #102
      00FF6A5AH   LINE      CODE     ---       #103
      00FF6A86H   LINE      CODE     ---       #105
      00FF6A95H   LINE      CODE     ---       #106
      00FF6AA4H   LINE      CODE     ---       #107
      00FF6AA7H   LINE      CODE     ---       #111
      00FF6ACAH   LINE      CODE     ---       #112
      00FF6AEDH   LINE      CODE     ---       #113
      00FF6AF0H   LINE      CODE     ---       #114
      00FF6B18H   LINE      CODE     ---       #116
L251 LINKER/LOCATER V4.66.93.0                                                        07/15/2024  23:31:17  PAGE 104


      00FF6B44H   LINE      CODE     ---       #117
      00FF6B65H   LINE      CODE     ---       #119
      00FF6B74H   LINE      CODE     ---       #120
      00FF6B83H   LINE      CODE     ---       #121
      00FF6B86H   LINE      CODE     ---       #123
      00FF6BA9H   LINE      CODE     ---       #124
      00FF6BCCH   LINE      CODE     ---       #125
      00FF6BCFH   LINE      CODE     ---       #126
      00FF6BF7H   LINE      CODE     ---       #128
      00FF6C18H   LINE      CODE     ---       #129
      00FF6C44H   LINE      CODE     ---       #131
      00FF6C53H   LINE      CODE     ---       #132
      00FF6C62H   LINE      CODE     ---       #133
      00FF6C65H   LINE      CODE     ---       #135
      00FF6C88H   LINE      CODE     ---       #136
      00FF6CABH   LINE      CODE     ---       #137
      00FF6CAEH   LINE      CODE     ---       #138
      00FF6CD6H   LINE      CODE     ---       #140
      00FF6D02H   LINE      CODE     ---       #141
      00FF6D23H   LINE      CODE     ---       #143
      00FF6D32H   LINE      CODE     ---       #144
      00FF6D41H   LINE      CODE     ---       #145
      00FF6D44H   LINE      CODE     ---       #147
      00FF6D67H   LINE      CODE     ---       #148
      00FF6D8AH   LINE      CODE     ---       #149
      00FF6D8CH   LINE      CODE     ---       #150
      00FF6DA1H   LINE      CODE     ---       #152
      00FF6DA7H   LINE      CODE     ---       #153
      00FF6DADH   LINE      CODE     ---       #154
      00FF6DB3H   LINE      CODE     ---       #155
      00FF6DB9H   LINE      CODE     ---       #157
      00FF6DC2H   LINE      CODE     ---       #158
      00FF6DC9H   LINE      CODE     ---       #159
      00FF6DC9H   LINE      CODE     ---       #167
      00FF6DD8H   LINE      CODE     ---       #168
      00FF6DE2H   LINE      CODE     ---       #169
      00FF6DF1H   LINE      CODE     ---       #170
      00FF6DFBH   LINE      CODE     ---       #171
      00FF6E0AH   LINE      CODE     ---       #172
      00FF6E14H   LINE      CODE     ---       #173
      00FF6E23H   LINE      CODE     ---       #174
      00FF6E2DH   LINE      CODE     ---       #177
      00FF6E44H   LINE      CODE     ---       #179
      00FF6E4FH   LINE      CODE     ---       #180
      00FF6E52H   LINE      CODE     ---       #181
      00FF6E64H   LINE      CODE     ---       #182
      00FF6E66H   LINE      CODE     ---       #183
      00FF6E7DH   LINE      CODE     ---       #186
      00FF6E88H   LINE      CODE     ---       #187
      00FF6E8BH   LINE      CODE     ---       #188
      00FF6EA0H   LINE      CODE     ---       #189
      00FF6EA0H   LINE      CODE     ---       #190
      00FF6EB7H   LINE      CODE     ---       #192
      00FF6EC2H   LINE      CODE     ---       #193
      00FF6EC5H   LINE      CODE     ---       #194
      00FF6ED9H   LINE      CODE     ---       #195
      00FF6EDBH   LINE      CODE     ---       #196
      00FF6EF2H   LINE      CODE     ---       #199
      00FF6EFDH   LINE      CODE     ---       #200
      00FF6F00H   LINE      CODE     ---       #201
      00FF6F17H   LINE      CODE     ---       #202
      00FF6F17H   LINE      CODE     ---       #206
      00FF6F2CH   LINE      CODE     ---       #208
      00FF6F32H   LINE      CODE     ---       #209
      00FF6F38H   LINE      CODE     ---       #210
L251 LINKER/LOCATER V4.66.93.0                                                        07/15/2024  23:31:17  PAGE 105


      00FF6F3EH   LINE      CODE     ---       #211
      00FF6F44H   LINE      CODE     ---       #213
      00FF6F4DH   LINE      CODE     ---       #214
      00FF6F54H   LINE      CODE     ---       #217
      ---         BLOCKEND  ---      ---       LVL=0

      00FF374DH   BLOCK     CODE     ---       LVL=0
      00FF374DH   LINE      CODE     ---       #226
      00FF374DH   LINE      CODE     ---       #228
      00FF376BH   LINE      CODE     ---       #229
      00FF3791H   LINE      CODE     ---       #230
      00FF37CDH   LINE      CODE     ---       #231
      00FF37F3H   LINE      CODE     ---       #232
      00FF382FH   LINE      CODE     ---       #233
      00FF3855H   LINE      CODE     ---       #234
      00FF3891H   LINE      CODE     ---       #235
      00FF38B5H   LINE      CODE     ---       #238
      00FF38F1H   LINE      CODE     ---       #239
      00FF3915H   LINE      CODE     ---       #240
      00FF3951H   LINE      CODE     ---       #241
      00FF3975H   LINE      CODE     ---       #242
      00FF39B1H   LINE      CODE     ---       #243
      00FF39D7H   LINE      CODE     ---       #244
      00FF3A13H   LINE      CODE     ---       #245
      00FF3A39H   LINE      CODE     ---       #246
      00FF3A75H   LINE      CODE     ---       #247
      00FF3A99H   LINE      CODE     ---       #248
      00FF3AD5H   LINE      CODE     ---       #249
      00FF3AFBH   LINE      CODE     ---       #250
      00FF3B37H   LINE      CODE     ---       #251
      00FF3B5BH   LINE      CODE     ---       #252
      00FF3B97H   LINE      CODE     ---       #253
      00FF3BBBH   LINE      CODE     ---       #254
      00FF3BF7H   LINE      CODE     ---       #255
      00FF3C1BH   LINE      CODE     ---       #256
      00FF3C57H   LINE      CODE     ---       #257
      00FF3C7BH   LINE      CODE     ---       #258
      00FF3CB7H   LINE      CODE     ---       #259
      00FF3CDBH   LINE      CODE     ---       #260
      00FF3D17H   LINE      CODE     ---       #261
      00FF3D3BH   LINE      CODE     ---       #262
      00FF3D77H   LINE      CODE     ---       #263
      00FF3D9BH   LINE      CODE     ---       #264
      00FF3DD7H   LINE      CODE     ---       #265
      00FF3DFAH   LINE      CODE     ---       #266
      00FF3E18H   LINE      CODE     ---       #267
      00FF3E39H   LINE      CODE     ---       #269
      00FF3E57H   LINE      CODE     ---       #270
      00FF3E7DH   LINE      CODE     ---       #271
      00FF3EB9H   LINE      CODE     ---       #272
      00FF3EDFH   LINE      CODE     ---       #273
      00FF3F1BH   LINE      CODE     ---       #274
      00FF3F41H   LINE      CODE     ---       #275
      00FF3F7DH   LINE      CODE     ---       #276
      00FF3FA1H   LINE      CODE     ---       #279
      00FF3FDDH   LINE      CODE     ---       #280
      00FF4001H   LINE      CODE     ---       #281
      00FF403DH   LINE      CODE     ---       #282
      00FF4061H   LINE      CODE     ---       #283
      00FF409DH   LINE      CODE     ---       #284
      00FF40C3H   LINE      CODE     ---       #285
      00FF40FFH   LINE      CODE     ---       #286
      00FF4125H   LINE      CODE     ---       #287
      00FF4161H   LINE      CODE     ---       #288
      00FF4185H   LINE      CODE     ---       #289
L251 LINKER/LOCATER V4.66.93.0                                                        07/15/2024  23:31:17  PAGE 106


      00FF41C1H   LINE      CODE     ---       #290
      00FF41E7H   LINE      CODE     ---       #291
      00FF4223H   LINE      CODE     ---       #292
      00FF4247H   LINE      CODE     ---       #293
      00FF4283H   LINE      CODE     ---       #294
      00FF42A7H   LINE      CODE     ---       #295
      00FF42E3H   LINE      CODE     ---       #296
      00FF4307H   LINE      CODE     ---       #297
      00FF4343H   LINE      CODE     ---       #298
      00FF4367H   LINE      CODE     ---       #299
      00FF43A3H   LINE      CODE     ---       #300
      00FF43C7H   LINE      CODE     ---       #301
      00FF4403H   LINE      CODE     ---       #302
      00FF4427H   LINE      CODE     ---       #303
      00FF4463H   LINE      CODE     ---       #304
      00FF4487H   LINE      CODE     ---       #305
      00FF44C3H   LINE      CODE     ---       #306
      00FF44E6H   LINE      CODE     ---       #307
      00FF4504H   LINE      CODE     ---       #308
      ---         BLOCKEND  ---      ---       LVL=0

      00FFA1EBH   BLOCK     CODE     ---       LVL=0
      00001198H   SYMBOL    EDATA    FLOAT     inc_in
      00FFA1EFH   BLOCK     CODE     NEAR LAB  LVL=1
      0000119CH   SYMBOL    EDATA    FLOAT     inc_out
      ---         BLOCKEND  ---      ---       LVL=1
      00FFA1EBH   LINE      CODE     ---       #339
      00FFA1EFH   LINE      CODE     ---       #340
      00FFA1EFH   LINE      CODE     ---       #342
      00FFA20CH   LINE      CODE     ---       #344
      00FFA214H   LINE      CODE     ---       #345
      00FFA218H   LINE      CODE     ---       #346
      ---         BLOCKEND  ---      ---       LVL=0

      00FFA219H   BLOCK     CODE     ---       LVL=0
      000011A0H   SYMBOL    EDATA    FLOAT     inc_in
      00FFA21DH   BLOCK     CODE     NEAR LAB  LVL=1
      000011A4H   SYMBOL    EDATA    FLOAT     inc_out
      ---         BLOCKEND  ---      ---       LVL=1
      00FFA219H   LINE      CODE     ---       #348
      00FFA21DH   LINE      CODE     ---       #349
      00FFA21DH   LINE      CODE     ---       #351
      00FFA23AH   LINE      CODE     ---       #353
      00FFA242H   LINE      CODE     ---       #354
      00FFA246H   LINE      CODE     ---       #355
      ---         BLOCKEND  ---      ---       LVL=0

      00FFA1B9H   BLOCK     CODE     ---       LVL=0
      000011A8H   SYMBOL    EDATA    FLOAT     inc_in
      00FFA1BDH   BLOCK     CODE     NEAR LAB  LVL=1
      000011ACH   SYMBOL    EDATA    FLOAT     inc_out
      ---         BLOCKEND  ---      ---       LVL=1
      00FFA1B9H   LINE      CODE     ---       #358
      00FFA1BDH   LINE      CODE     ---       #359
      00FFA1BDH   LINE      CODE     ---       #361
      00FFA1DEH   LINE      CODE     ---       #363
      00FFA1E6H   LINE      CODE     ---       #364
      00FFA1EAH   LINE      CODE     ---       #365
      ---         BLOCKEND  ---      ---       LVL=0

      ---         MODULE    ---      ---       control
      00FF9E8DH   PUBLIC    CODE     ---       PID_turnSet
      00FF8B2AH   PUBLIC    CODE     ---       turn_PstPID
      00FFA115H   PUBLIC    CODE     ---       PID_Set
      00FF97E4H   PUBLIC    CODE     ---       PID_init
L251 LINKER/LOCATER V4.66.93.0                                                        07/15/2024  23:31:17  PAGE 107


      00FF8DAFH   PUBLIC    CODE     ---       IncPID
      00000209H   PUBLIC    EDATA    ---       mr_pid
      00000229H   PUBLIC    EDATA    ---       s_pid
      00000249H   PUBLIC    EDATA    ---       w_pid
      00000269H   PUBLIC    EDATA    ---       Steer_pid
      00000289H   PUBLIC    EDATA    ---       L_pid
      000002A9H   PUBLIC    EDATA    ---       turn_pid
      000002C9H   PUBLIC    EDATA    ---       R_pid
      000002E9H   PUBLIC    EDATA    ---       ml_pid
      00000DB2H   PUBLIC    EDATA    BYTE      ?PID_Set?BYTE
      00000D02H   PUBLIC    EDATA    BYTE      ?PID_turnSet?BYTE
      00000DC2H   PUBLIC    EDATA    BYTE      ?IncPID?BYTE
      00000DD2H   PUBLIC    EDATA    BYTE      ?PstPID?BYTE
      000000D0H   SFRSYM    DATA     BYTE      PSW
      0000009DH   SFRSYM    DATA     BYTE      IRCBAND
      00000097H   SFRSYM    DATA     BYTE      AUXR2
      000000EFH   SFRSYM    DATA     BYTE      AUXINTIF
      000000FDH   SFRSYM    DATA     BYTE      S4CON
      000000ACH   SFRSYM    DATA     BYTE      S3CON
      0000009AH   SFRSYM    DATA     BYTE      S2CON
      000000B7H   SFRSYM    DATA     BYTE      IPH
      000000CDH   SFRSYM    DATA     BYTE      SPSTAT
      000000DDH   SFRSYM    DATA     BYTE      T4T3M
      000000C1H   SFRSYM    DATA     BYTE      WDT_CONTR
      000000DFH   SFRSYM    DATA     BYTE      IP3
      000000F4H   SFRSYM    DATA     BYTE      USBCON
      000000B5H   SFRSYM    DATA     BYTE      IP2
      000000FFH   SFRSYM    DATA     BYTE      RSTCFG
      000000C7H   SFRSYM    DATA     BYTE      IAP_CONTR
      000000F9H   SFRSYM    DATA     BYTE      LINICR
      0000008EH   SFRSYM    DATA     BYTE      AUXR
      000000AFH   SFRSYM    DATA     BYTE      IE2
      00000088H   SFRSYM    DATA     BYTE      TCON
      00000089H   SFRSYM    DATA     BYTE      TMOD
      00000098H   SFRSYM    DATA     BYTE      SCON
      000000F1H   SFRSYM    DATA     BYTE      CANICR
      00000087H   SFRSYM    DATA     BYTE      PCON
      000000BCH   SFRSYM    DATA     BYTE      ADC_CONTR
      000000E7H   SFRSYM    DATA     BYTE      CMPCR2
      000000E6H   SFRSYM    DATA     BYTE      CMPCR1
      000000DEH   SFRSYM    DATA     BYTE      ADCCFG
      000000B8H   SFRSYM    DATA     BYTE      IP
      0000008FH   SFRSYM    DATA     BYTE      INTCLKO
      000000EEH   SFRSYM    DATA     BYTE      IP3H
      000000B6H   SFRSYM    DATA     BYTE      IP2H
      000000A8H   SFRSYM    DATA     BYTE      IE
      000000BBH   SFRSYM    DATA     BYTE      P_SW3
      000000BAH   SFRSYM    DATA     BYTE      P_SW2
      000000A2H   SFRSYM    DATA     BYTE      P_SW1
      000000CEH   SFRSYM    DATA     BYTE      SPCTL
      000000F8H   SFRSYM    DATA     BYTE      P7
      000000E8H   SFRSYM    DATA     BYTE      P6
      000000C8H   SFRSYM    DATA     BYTE      P5
      000000C0H   SFRSYM    DATA     BYTE      P4
      000000B0H   SFRSYM    DATA     BYTE      P3
      000000A0H   SFRSYM    DATA     BYTE      P2
      00000090H   SFRSYM    DATA     BYTE      P1
      00000080H   SFRSYM    DATA     BYTE      P0

      00FF97E4H   BLOCK     CODE     ---       LVL=0
      00001365H   SYMBOL    EDATA    ---       sptr
      00FF97E4H   LINE      CODE     ---       #6
      00FF97E8H   LINE      CODE     ---       #8
      00FF97F5H   LINE      CODE     ---       #9
      00FF9804H   LINE      CODE     ---       #10
L251 LINKER/LOCATER V4.66.93.0                                                        07/15/2024  23:31:17  PAGE 108


      00FF9815H   LINE      CODE     ---       #11
      00FF9826H   LINE      CODE     ---       #12
      00FF9837H   LINE      CODE     ---       #13
      00FF9848H   LINE      CODE     ---       #14
      00FF9859H   LINE      CODE     ---       #15
      00FF986AH   LINE      CODE     ---       #18
      ---         BLOCKEND  ---      ---       LVL=0

      00FFA115H   BLOCK     CODE     ---       LVL=0
      00000DB2H   SYMBOL    EDATA    ---       PID
      00000DB6H   SYMBOL    EDATA    FLOAT     Kp
      00000DBAH   SYMBOL    EDATA    FLOAT     Ki
      00000DBEH   SYMBOL    EDATA    FLOAT     Kd
      00FFA115H   LINE      CODE     ---       #21
      00FFA11DH   LINE      CODE     ---       #23
      00FFA12CH   LINE      CODE     ---       #24
      00FFA13DH   LINE      CODE     ---       #25
      00FFA150H   LINE      CODE     ---       #26
      ---         BLOCKEND  ---      ---       LVL=0

      00FF9E8DH   BLOCK     CODE     ---       LVL=0
      00000D02H   SYMBOL    EDATA    ---       PID
      00000D06H   SYMBOL    EDATA    FLOAT     Kp
      00000D0AH   SYMBOL    EDATA    FLOAT     Ki
      00000D0EH   SYMBOL    EDATA    FLOAT     Kd
      00000D12H   SYMBOL    EDATA    FLOAT     Kd2
      00FF9E8DH   LINE      CODE     ---       #28
      00FF9E95H   LINE      CODE     ---       #30
      00FF9EA4H   LINE      CODE     ---       #31
      00FF9EB5H   LINE      CODE     ---       #32
      00FF9EC8H   LINE      CODE     ---       #33
      00FF9EDBH   LINE      CODE     ---       #34
      ---         BLOCKEND  ---      ---       LVL=0

      00FF8DAFH   BLOCK     CODE     ---       LVL=0
      00000DC2H   SYMBOL    EDATA    FLOAT     Encoder
      00000DC6H   SYMBOL    EDATA    FLOAT     Target
      00000DCAH   SYMBOL    EDATA    ---       sptr
      00FF8DB7H   BLOCK     CODE     NEAR LAB  LVL=1
      00000DCEH   SYMBOL    EDATA    FLOAT     Pwm
      ---         BLOCKEND  ---      ---       LVL=1
      00FF8DAFH   LINE      CODE     ---       #37
      00FF8DB7H   LINE      CODE     ---       #38
      00FF8DB7H   LINE      CODE     ---       #41
      00FF8DD3H   LINE      CODE     ---       #42
      00FF8E8BH   LINE      CODE     ---       #44
      00FF8EA9H   LINE      CODE     ---       #45
      00FF8EC7H   LINE      CODE     ---       #52
      00FF8ECBH   LINE      CODE     ---       #54
      ---         BLOCKEND  ---      ---       LVL=0
      00000DD2H   SYMBOL    EDATA    FLOAT     Angle
      00000DD6H   SYMBOL    EDATA    FLOAT     Target
      00000DDAH   SYMBOL    EDATA    ---       sptr
      00000DDEH   SYMBOL    EDATA    FLOAT     Pwm

      00FF8B2AH   BLOCK     CODE     ---       LVL=0
      00000F37H   SYMBOL    EDATA    FLOAT     turn_error
      00000F3BH   SYMBOL    EDATA    ---       sptr
      00FF8B32H   BLOCK     CODE     NEAR LAB  LVL=1
      00000F3FH   SYMBOL    EDATA    FLOAT     Pwm
      ---         BLOCKEND  ---      ---       LVL=1
      00FF8B2AH   LINE      CODE     ---       #76
      00FF8B32H   LINE      CODE     ---       #77
      00FF8B32H   LINE      CODE     ---       #79
      00FF8B45H   LINE      CODE     ---       #81
L251 LINKER/LOCATER V4.66.93.0                                                        07/15/2024  23:31:17  PAGE 109


      00FF8C31H   LINE      CODE     ---       #89
      00FF8C4FH   LINE      CODE     ---       #90
      00FF8C6DH   LINE      CODE     ---       #94
      00FF8C71H   LINE      CODE     ---       #97
      ---         BLOCKEND  ---      ---       LVL=0

      ---         MODULE    ---      ---       element
      00FFA465H   PUBLIC    CODE     ---       pow2
      00FF4FB2H   PUBLIC    CODE     ---       judge
      00FF86DEH   PUBLIC    CODE     ---       YUANHUAN
      00000309H   PUBLIC    EDATA    FLOAT     s_r_RSHIZI
      0000030DH   PUBLIC    EDATA    CHAR      cricle_count_order
      0000030EH   PUBLIC    EDATA    CHAR      circle_count
      0000030FH   PUBLIC    EDATA    FLOAT     bizhang_inc
      00000313H   PUBLIC    EDATA    FLOAT     s_r_WSHIZI
      00000317H   PUBLIC    EDATA    FLOAT     straight_inc
      0000031BH   PUBLIC    EDATA    INT       circle_inc
      0000031DH   PUBLIC    EDATA    FLOAT     target_speed_save
      00000321H   PUBLIC    EDATA    CHAR      zhijiao_L
      00000322H   PUBLIC    EDATA    CHAR      circle_L
      00000323H   PUBLIC    EDATA    CHAR      zhijiao_R
      00000324H   PUBLIC    EDATA    INT       SHIZI_yuzhi
      00000326H   PUBLIC    EDATA    CHAR      flag_shizi
      00000327H   PUBLIC    EDATA    CHAR      circle_R
      00000328H   PUBLIC    EDATA    ---       mask
      00000360H   PUBLIC    EDATA    ---       adc_state
      0000036BH   PUBLIC    EDATA    FLOAT     s_r_SHIZI
      0000036FH   PUBLIC    EDATA    FLOAT     s_r_RYUAN
      00000373H   PUBLIC    EDATA    INT       shizi_count
      00000375H   PUBLIC    EDATA    ---       collection_shizi
      00000389H   PUBLIC    EDATA    ---       adc_cons
      000003B5H   PUBLIC    EDATA    FLOAT     s_r
      000003B9H   PUBLIC    EDATA    CHAR      flag_SHIZI_KNN
      000003BAH   PUBLIC    EDATA    FLOAT     motor_inc
      000003BEH   PUBLIC    EDATA    CHAR      flag_shizi_R
      000003BFH   PUBLIC    EDATA    INT       cir_inc
      000003C1H   PUBLIC    EDATA    ---       bizhang_window
      000003CBH   PUBLIC    EDATA    CHAR      bizhang
      000003CCH   PUBLIC    EDATA    CHAR      flag_barrier
      000003CDH   PUBLIC    EDATA    CHAR      barrier
      000003CEH   PUBLIC    EDATA    INT       HUANDAO_Lyuzhi
      000003D0H   PUBLIC    EDATA    CHAR      flag_zhijiao
      000003D1H   PUBLIC    EDATA    ---       collection_shizi_R
      000003E5H   PUBLIC    EDATA    INT       HUANDAO_Ryuzhi
      000003E7H   PUBLIC    EDATA    CHAR      flag_circle
      000003E8H   PUBLIC    EDATA    INT       SHIZI_Ryuzhi
      000003EAH   PUBLIC    EDATA    CHAR      barrier_count
      000003EBH   PUBLIC    EDATA    FLOAT     s_r_LSHIZI
      000000D0H   SFRSYM    DATA     BYTE      PSW
      0000009DH   SFRSYM    DATA     BYTE      IRCBAND
      00000097H   SFRSYM    DATA     BYTE      AUXR2
      000000EFH   SFRSYM    DATA     BYTE      AUXINTIF
      000000FDH   SFRSYM    DATA     BYTE      S4CON
      000000ACH   SFRSYM    DATA     BYTE      S3CON
      0000009AH   SFRSYM    DATA     BYTE      S2CON
      000000B7H   SFRSYM    DATA     BYTE      IPH
      000000CDH   SFRSYM    DATA     BYTE      SPSTAT
      000000DDH   SFRSYM    DATA     BYTE      T4T3M
      000000C1H   SFRSYM    DATA     BYTE      WDT_CONTR
      000000DFH   SFRSYM    DATA     BYTE      IP3
      000000F4H   SFRSYM    DATA     BYTE      USBCON
      000000B5H   SFRSYM    DATA     BYTE      IP2
      000000FFH   SFRSYM    DATA     BYTE      RSTCFG
      000000C7H   SFRSYM    DATA     BYTE      IAP_CONTR
      000000F9H   SFRSYM    DATA     BYTE      LINICR
L251 LINKER/LOCATER V4.66.93.0                                                        07/15/2024  23:31:17  PAGE 110


      0000008EH   SFRSYM    DATA     BYTE      AUXR
      000000AFH   SFRSYM    DATA     BYTE      IE2
      00000088H   SFRSYM    DATA     BYTE      TCON
      00000089H   SFRSYM    DATA     BYTE      TMOD
      000000B0H.2 SFRSYM    DATA     BIT       P32
      00000098H   SFRSYM    DATA     BYTE      SCON
      000000F1H   SFRSYM    DATA     BYTE      CANICR
      00000087H   SFRSYM    DATA     BYTE      PCON
      000000BCH   SFRSYM    DATA     BYTE      ADC_CONTR
      000000E7H   SFRSYM    DATA     BYTE      CMPCR2
      000000E6H   SFRSYM    DATA     BYTE      CMPCR1
      000000DEH   SFRSYM    DATA     BYTE      ADCCFG
      000000B8H   SFRSYM    DATA     BYTE      IP
      0000008FH   SFRSYM    DATA     BYTE      INTCLKO
      000000EEH   SFRSYM    DATA     BYTE      IP3H
      000000B6H   SFRSYM    DATA     BYTE      IP2H
      000000A8H   SFRSYM    DATA     BYTE      IE
      000000BBH   SFRSYM    DATA     BYTE      P_SW3
      000000BAH   SFRSYM    DATA     BYTE      P_SW2
      000000A2H   SFRSYM    DATA     BYTE      P_SW1
      000000CEH   SFRSYM    DATA     BYTE      SPCTL
      000000F8H   SFRSYM    DATA     BYTE      P7
      000000E8H   SFRSYM    DATA     BYTE      P6
      000000C8H   SFRSYM    DATA     BYTE      P5
      000000C0H   SFRSYM    DATA     BYTE      P4
      000000B0H   SFRSYM    DATA     BYTE      P3
      000000A0H   SFRSYM    DATA     BYTE      P2
      00000090H   SFRSYM    DATA     BYTE      P1
      00000080H   SFRSYM    DATA     BYTE      P0

      00FF4FB2H   BLOCK     CODE     ---       LVL=0
      00FF4FB2H   LINE      CODE     ---       #71
      00FF4FB2H   LINE      CODE     ---       #74
      00FF4FB9H   LINE      CODE     ---       #77
      00FF5032H   LINE      CODE     ---       #79
      00FF5038H   LINE      CODE     ---       #81
      00FF503BH   LINE      CODE     ---       #83
      00FF5043H   LINE      CODE     ---       #84
      00FF5043H   LINE      CODE     ---       #87
      00FF504FH   LINE      CODE     ---       #90
      00FF505BH   LINE      CODE     ---       #92
      00FF5076H   LINE      CODE     ---       #96
      00FF5076H   LINE      CODE     ---       #97
      00FF5091H   LINE      CODE     ---       #100
      00FF509BH   LINE      CODE     ---       #101
      00FF50A5H   LINE      CODE     ---       #102
      00FF50C1H   LINE      CODE     ---       #103
      00FF50D5H   LINE      CODE     ---       #105
      00FF50E0H   LINE      CODE     ---       #106
      00FF50E0H   LINE      CODE     ---       #108
      00FF50F3H   LINE      CODE     ---       #110
      00FF50F6H   LINE      CODE     ---       #112
      00FF5102H   LINE      CODE     ---       #115
      00FF510EH   LINE      CODE     ---       #117
      00FF5111H   LINE      CODE     ---       #121
      00FF5114H   LINE      CODE     ---       #122
      00FF511CH   LINE      CODE     ---       #123
      00FF5124H   LINE      CODE     ---       #125
      00FF512AH   LINE      CODE     ---       #126
      00FF5130H   LINE      CODE     ---       #127
      00FF5136H   LINE      CODE     ---       #128
      00FF513CH   LINE      CODE     ---       #129
      00FF5144H   LINE      CODE     ---       #131
      00FF5144H   LINE      CODE     ---       #132
      00FF5147H   LINE      CODE     ---       #135
L251 LINKER/LOCATER V4.66.93.0                                                        07/15/2024  23:31:17  PAGE 111


      00FF5153H   LINE      CODE     ---       #137
      00FF5158H   LINE      CODE     ---       #139
      00FF516EH   LINE      CODE     ---       #141
      00FF517AH   LINE      CODE     ---       #143
      00FF517DH   LINE      CODE     ---       #144
      00FF5196H   LINE      CODE     ---       #146
      00FF51B2H   LINE      CODE     ---       #147
      00FF51C5H   LINE      CODE     ---       #149
      00FF51C8H   LINE      CODE     ---       #150
      00FF51DCH   LINE      CODE     ---       #152
      00FF51E7H   LINE      CODE     ---       #153
      00FF51E7H   LINE      CODE     ---       #157
      00FF51F3H   LINE      CODE     ---       #159
      00FF51F6H   LINE      CODE     ---       #160
      00FF5202H   LINE      CODE     ---       #161
      00FF5204H   LINE      CODE     ---       #162
      00FF521CH   LINE      CODE     ---       #164
      00FF521FH   LINE      CODE     ---       #166
      00FF5221H   LINE      CODE     ---       #167
      00FF5239H   LINE      CODE     ---       #169
      00FF5245H   LINE      CODE     ---       #170
      00FF5248H   LINE      CODE     ---       #171
      00FF524AH   LINE      CODE     ---       #178
      00FF5250H   LINE      CODE     ---       #179
      00FF5256H   LINE      CODE     ---       #180
      00FF525CH   LINE      CODE     ---       #181
      00FF5262H   LINE      CODE     ---       #182
      00FF526AH   LINE      CODE     ---       #184
      00FF526AH   LINE      CODE     ---       #185
      00FF526AH   LINE      CODE     ---       #188
      00FF526AH   LINE      CODE     ---       #191
      00FF5273H   LINE      CODE     ---       #194
      00FF5289H   LINE      CODE     ---       #196
      00FF528FH   LINE      CODE     ---       #198
      00FF5294H   LINE      CODE     ---       #200
      00FF5296H   LINE      CODE     ---       #201
      00FF52C2H   LINE      CODE     ---       #204
      00FF52C2H   LINE      CODE     ---       #208
      00FF52C5H   LINE      CODE     ---       #209
      00FF52D2H   LINE      CODE     ---       #210
      00FF52DFH   LINE      CODE     ---       #211
      00FF52E4H   LINE      CODE     ---       #212
      00FF52ECH   LINE      CODE     ---       #213
      00FF52ECH   LINE      CODE     ---       #215
      00FF52ECH   LINE      CODE     ---       #220
      00FF5365H   LINE      CODE     ---       #222
      00FF536BH   LINE      CODE     ---       #224
      00FF536EH   LINE      CODE     ---       #226
      00FF5376H   LINE      CODE     ---       #227
      00FF5376H   LINE      CODE     ---       #229
      00FF5382H   LINE      CODE     ---       #232
      00FF5387H   LINE      CODE     ---       #234
      00FF5393H   LINE      CODE     ---       #236
      00FF53AEH   LINE      CODE     ---       #240
      00FF53AEH   LINE      CODE     ---       #241
      00FF53C9H   LINE      CODE     ---       #243
      00FF53D3H   LINE      CODE     ---       #244
      00FF53DDH   LINE      CODE     ---       #245
      00FF53F9H   LINE      CODE     ---       #246
      00FF540DH   LINE      CODE     ---       #248
      00FF5418H   LINE      CODE     ---       #249
      00FF5418H   LINE      CODE     ---       #251
      00FF542BH   LINE      CODE     ---       #253
      00FF542EH   LINE      CODE     ---       #255
      00FF543AH   LINE      CODE     ---       #258
L251 LINKER/LOCATER V4.66.93.0                                                        07/15/2024  23:31:17  PAGE 112


      00FF5446H   LINE      CODE     ---       #260
      00FF5449H   LINE      CODE     ---       #264
      00FF544CH   LINE      CODE     ---       #265
      00FF5454H   LINE      CODE     ---       #266
      00FF545CH   LINE      CODE     ---       #268
      00FF5462H   LINE      CODE     ---       #269
      00FF5468H   LINE      CODE     ---       #270
      00FF546EH   LINE      CODE     ---       #271
      00FF5474H   LINE      CODE     ---       #272
      00FF547CH   LINE      CODE     ---       #274
      00FF547CH   LINE      CODE     ---       #275
      00FF547FH   LINE      CODE     ---       #278
      00FF548BH   LINE      CODE     ---       #281
      00FF54A1H   LINE      CODE     ---       #283
      00FF54ADH   LINE      CODE     ---       #285
      00FF54B0H   LINE      CODE     ---       #286
      00FF54C9H   LINE      CODE     ---       #288
      00FF54E5H   LINE      CODE     ---       #289
      00FF54F9H   LINE      CODE     ---       #291
      00FF5504H   LINE      CODE     ---       #292
      00FF5504H   LINE      CODE     ---       #294
      00FF5517H   LINE      CODE     ---       #296
      00FF551AH   LINE      CODE     ---       #298
      00FF5526H   LINE      CODE     ---       #300
      00FF5532H   LINE      CODE     ---       #301
      00FF5534H   LINE      CODE     ---       #302
      00FF554CH   LINE      CODE     ---       #306
      00FF554CH   LINE      CODE     ---       #307
      00FF5564H   LINE      CODE     ---       #309
      00FF556EH   LINE      CODE     ---       #310
      00FF5570H   LINE      CODE     ---       #314
      00FF5573H   LINE      CODE     ---       #317
      00FF5579H   LINE      CODE     ---       #318
      00FF557FH   LINE      CODE     ---       #319
      00FF5585H   LINE      CODE     ---       #320
      00FF558BH   LINE      CODE     ---       #321
      00FF5593H   LINE      CODE     ---       #323
      00FF5593H   LINE      CODE     ---       #324
      00FF5593H   LINE      CODE     ---       #327
      00FF5593H   LINE      CODE     ---       #329
      00FF559CH   LINE      CODE     ---       #332
      00FF55B2H   LINE      CODE     ---       #334
      00FF55B8H   LINE      CODE     ---       #336
      00FF55BDH   LINE      CODE     ---       #338
      00FF55BFH   LINE      CODE     ---       #339
      00FF55EBH   LINE      CODE     ---       #342
      00FF55EBH   LINE      CODE     ---       #345
      00FF55EEH   LINE      CODE     ---       #346
      00FF55FAH   LINE      CODE     ---       #347
      00FF5607H   LINE      CODE     ---       #348
      00FF560CH   LINE      CODE     ---       #349
      00FF5614H   LINE      CODE     ---       #350
      00FF5614H   LINE      CODE     ---       #351
      00FF5614H   LINE      CODE     ---       #358
      00FF5650H   LINE      CODE     ---       #363
      00FF5699H   LINE      CODE     ---       #369
      00FF569FH   LINE      CODE     ---       #373
      00FF56A7H   LINE      CODE     ---       #374
      00FF56ADH   LINE      CODE     ---       #375
      00FF56B0H   LINE      CODE     ---       #376
      00FF56BCH   LINE      CODE     ---       #377
      00FF56C2H   LINE      CODE     ---       #379
      00FF56C4H   LINE      CODE     ---       #380
      00FF570DH   LINE      CODE     ---       #382
      00FF5713H   LINE      CODE     ---       #383
L251 LINKER/LOCATER V4.66.93.0                                                        07/15/2024  23:31:17  PAGE 113


      00FF571BH   LINE      CODE     ---       #384
      00FF571BH   LINE      CODE     ---       #395
      00FF5724H   LINE      CODE     ---       #397
      00FF573AH   LINE      CODE     ---       #401
      00FF573DH   LINE      CODE     ---       #402
      00FF573FH   LINE      CODE     ---       #403
      00FF5755H   LINE      CODE     ---       #407
      00FF5758H   LINE      CODE     ---       #408
      00FF575DH   LINE      CODE     ---       #409
      00FF5769H   LINE      CODE     ---       #410
      00FF5769H   LINE      CODE     ---       #415
      00FF5775H   LINE      CODE     ---       #418
      00FF5791H   LINE      CODE     ---       #420
      00FF579AH   LINE      CODE     ---       #422
      00FF57A9H   LINE      CODE     ---       #425
      00FF57ACH   LINE      CODE     ---       #426
      00FF57B8H   LINE      CODE     ---       #427
      00FF57BAH   LINE      CODE     ---       #431
      00FF57C2H   LINE      CODE     ---       #432
      00FF57C8H   LINE      CODE     ---       #433
      00FF57C8H   LINE      CODE     ---       #434
      00FF57C8H   LINE      CODE     ---       #436
      00FF57D1H   LINE      CODE     ---       #438
      00FF57E7H   LINE      CODE     ---       #443
      00FF57EAH   LINE      CODE     ---       #444
      00FF57F0H   LINE      CODE     ---       #445
      00FF57F2H   LINE      CODE     ---       #446
      00FF5808H   LINE      CODE     ---       #449
      00FF580EH   LINE      CODE     ---       #450
      00FF580EH   LINE      CODE     ---       #483
      00FF5817H   LINE      CODE     ---       #485
      00FF5822H   LINE      CODE     ---       #488
      00FF5825H   LINE      CODE     ---       #489
      00FF582FH   LINE      CODE     ---       #490
      00FF5831H   LINE      CODE     ---       #494
      00FF5839H   LINE      CODE     ---       #495
      00FF583FH   LINE      CODE     ---       #496
      00FF583FH   LINE      CODE     ---       #497
      00FF583FH   LINE      CODE     ---       #499
      00FF5848H   LINE      CODE     ---       #501
      00FF585EH   LINE      CODE     ---       #503
      00FF5861H   LINE      CODE     ---       #504
      00FF586DH   LINE      CODE     ---       #506
      00FF586FH   LINE      CODE     ---       #507
      00FF5885H   LINE      CODE     ---       #509
      00FF588DH   LINE      CODE     ---       #510
      00FF5893H   LINE      CODE     ---       #511
      00FF5893H   LINE      CODE     ---       #516
      00FF589CH   LINE      CODE     ---       #518
      00FF58B2H   LINE      CODE     ---       #520
      00FF58B5H   LINE      CODE     ---       #522
      00FF58B7H   LINE      CODE     ---       #523
      00FF58CDH   LINE      CODE     ---       #525
      00FF58D3H   LINE      CODE     ---       #526
      00FF58D3H   LINE      CODE     ---       #530
      00FF58DCH   LINE      CODE     ---       #533
      00FF58E1H   LINE      CODE     ---       #534
      00FF58E7H   LINE      CODE     ---       #535
      00FF58EAH   LINE      CODE     ---       #536
      00FF58EFH   LINE      CODE     ---       #537
      00FF58F4H   LINE      CODE     ---       #538
      00FF58FAH   LINE      CODE     ---       #539
      00FF58FAH   LINE      CODE     ---       #542
      ---         BLOCKEND  ---      ---       LVL=0

L251 LINKER/LOCATER V4.66.93.0                                                        07/15/2024  23:31:17  PAGE 114


      00FFA465H   BLOCK     CODE     ---       LVL=0
      000011B0H   SYMBOL    EDATA    FLOAT     w
      00FFA469H   BLOCK     CODE     NEAR LAB  LVL=1
      000011B4H   SYMBOL    EDATA    FLOAT     d
      ---         BLOCKEND  ---      ---       LVL=1
      00FFA465H   LINE      CODE     ---       #554
      00FFA469H   LINE      CODE     ---       #555
      00FFA469H   LINE      CODE     ---       #556
      00FFA478H   LINE      CODE     ---       #558
      00FFA478H   LINE      CODE     ---       #559
      ---         BLOCKEND  ---      ---       LVL=0

      00FF86DEH   BLOCK     CODE     ---       LVL=0
      00FF86DEH   LINE      CODE     ---       #611
      00FF86E0H   LINE      CODE     ---       #618
      00FF877AH   LINE      CODE     ---       #640
      00FF8814H   LINE      CODE     ---       #653
      00FF8835H   LINE      CODE     ---       #654
      00FF8839H   LINE      CODE     ---       #655
      00FF885AH   LINE      CODE     ---       #656
      00FF885EH   LINE      CODE     ---       #664
      00FF885FH   LINE      CODE     ---       #665
      ---         BLOCKEND  ---      ---       LVL=0

      ---         MODULE    ---      ---       key
      00FF82AEH   PUBLIC    CODE     ---       key
      000011B8H   PUBLIC    EDATA    CHAR      key_function_flag
      000011B9H   PUBLIC    EDATA    CHAR      cricle_function_switch
      000011BAH   PUBLIC    EDATA    CHAR      motor_start
      000011BBH   PUBLIC    EDATA    CHAR      bizhang_order
      000011BCH   PUBLIC    EDATA    CHAR      cricle_order
      000011BDH   PUBLIC    EDATA    CHAR      bizhangSTARTFlag
      000011BEH   PUBLIC    EDATA    INT       switch_shizi_circle
      000000D0H   SFRSYM    DATA     BYTE      PSW
      0000009DH   SFRSYM    DATA     BYTE      IRCBAND
      00000097H   SFRSYM    DATA     BYTE      AUXR2
      000000EFH   SFRSYM    DATA     BYTE      AUXINTIF
      000000FDH   SFRSYM    DATA     BYTE      S4CON
      000000ACH   SFRSYM    DATA     BYTE      S3CON
      0000009AH   SFRSYM    DATA     BYTE      S2CON
      000000B7H   SFRSYM    DATA     BYTE      IPH
      000000CDH   SFRSYM    DATA     BYTE      SPSTAT
      000000DDH   SFRSYM    DATA     BYTE      T4T3M
      000000C1H   SFRSYM    DATA     BYTE      WDT_CONTR
      000000DFH   SFRSYM    DATA     BYTE      IP3
      000000F4H   SFRSYM    DATA     BYTE      USBCON
      000000B5H   SFRSYM    DATA     BYTE      IP2
      000000FFH   SFRSYM    DATA     BYTE      RSTCFG
      000000C7H   SFRSYM    DATA     BYTE      IAP_CONTR
      000000F9H   SFRSYM    DATA     BYTE      LINICR
      0000008EH   SFRSYM    DATA     BYTE      AUXR
      000000AFH   SFRSYM    DATA     BYTE      IE2
      000000C0H.5 SFRSYM    DATA     BIT       P45
      00000090H.7 SFRSYM    DATA     BIT       P17
      00000090H.6 SFRSYM    DATA     BIT       P16
      000000C8H.1 SFRSYM    DATA     BIT       P51
      00000088H   SFRSYM    DATA     BYTE      TCON
      00000089H   SFRSYM    DATA     BYTE      TMOD
      000000C8H.0 SFRSYM    DATA     BIT       P50
      00000098H   SFRSYM    DATA     BYTE      SCON
      000000F1H   SFRSYM    DATA     BYTE      CANICR
      00000087H   SFRSYM    DATA     BYTE      PCON
      000000BCH   SFRSYM    DATA     BYTE      ADC_CONTR
      000000E7H   SFRSYM    DATA     BYTE      CMPCR2
      000000E6H   SFRSYM    DATA     BYTE      CMPCR1
L251 LINKER/LOCATER V4.66.93.0                                                        07/15/2024  23:31:17  PAGE 115


      000000DEH   SFRSYM    DATA     BYTE      ADCCFG
      000000B8H   SFRSYM    DATA     BYTE      IP
      0000008FH   SFRSYM    DATA     BYTE      INTCLKO
      000000EEH   SFRSYM    DATA     BYTE      IP3H
      000000B6H   SFRSYM    DATA     BYTE      IP2H
      000000A8H   SFRSYM    DATA     BYTE      IE
      000000BBH   SFRSYM    DATA     BYTE      P_SW3
      000000BAH   SFRSYM    DATA     BYTE      P_SW2
      000000A2H   SFRSYM    DATA     BYTE      P_SW1
      000000CEH   SFRSYM    DATA     BYTE      SPCTL
      000000F8H   SFRSYM    DATA     BYTE      P7
      000000E8H   SFRSYM    DATA     BYTE      P6
      000000C8H   SFRSYM    DATA     BYTE      P5
      000000C0H   SFRSYM    DATA     BYTE      P4
      000000B0H   SFRSYM    DATA     BYTE      P3
      000000A0H   SFRSYM    DATA     BYTE      P2
      00000090H   SFRSYM    DATA     BYTE      P1
      00000080H   SFRSYM    DATA     BYTE      P0

      00FF82AEH   BLOCK     CODE     ---       LVL=0
      00FF82AEH   LINE      CODE     ---       #16
      00FF82AEH   LINE      CODE     ---       #18
      00FF82B7H   LINE      CODE     ---       #20
      00FF82BEH   LINE      CODE     ---       #21
      00FF82C7H   LINE      CODE     ---       #23
      00FF82D0H   LINE      CODE     ---       #25
      00FF82D9H   LINE      CODE     ---       #27
      00FF82DFH   LINE      CODE     ---       #28
      00FF82E5H   LINE      CODE     ---       #29
      00FF82EBH   LINE      CODE     ---       #30
      00FF82F1H   LINE      CODE     ---       #32
      00FF82FAH   LINE      CODE     ---       #33
      00FF8301H   LINE      CODE     ---       #35
      00FF8306H   LINE      CODE     ---       #37
      00FF8308H   LINE      CODE     ---       #40
      00FF830EH   LINE      CODE     ---       #41
      00FF830EH   LINE      CODE     ---       #43
      00FF830EH   LINE      CODE     ---       #46
      00FF8317H   LINE      CODE     ---       #48
      00FF831EH   LINE      CODE     ---       #49
      00FF8327H   LINE      CODE     ---       #52
      00FF832AH   LINE      CODE     ---       #53
      00FF8336H   LINE      CODE     ---       #54
      00FF833FH   LINE      CODE     ---       #56
      00FF8345H   LINE      CODE     ---       #57
      00FF8345H   LINE      CODE     ---       #60
      00FF8345H   LINE      CODE     ---       #63
      00FF834EH   LINE      CODE     ---       #65
      00FF8355H   LINE      CODE     ---       #66
      00FF835EH   LINE      CODE     ---       #68
      00FF8367H   LINE      CODE     ---       #70
      00FF8373H   LINE      CODE     ---       #71
      00FF837CH   LINE      CODE     ---       #73
      00FF8382H   LINE      CODE     ---       #74
      00FF8382H   LINE      CODE     ---       #79
      00FF8382H   LINE      CODE     ---       #81
      00FF838EH   LINE      CODE     ---       #83
      00FF8395H   LINE      CODE     ---       #84
      00FF83A1H   LINE      CODE     ---       #86
      00FF83AAH   LINE      CODE     ---       #87
      00FF83B8H   LINE      CODE     ---       #88
      00FF83C4H   LINE      CODE     ---       #90
      00FF83CAH   LINE      CODE     ---       #91
      00FF83CAH   LINE      CODE     ---       #94
      00FF83DFH   LINE      CODE     ---       #96
L251 LINKER/LOCATER V4.66.93.0                                                        07/15/2024  23:31:17  PAGE 116


      00FF83DFH   LINE      CODE     ---       #98
      00FF83EBH   LINE      CODE     ---       #99
      00FF83F5H   LINE      CODE     ---       #101
      00FF83FAH   LINE      CODE     ---       #102
      00FF83FAH   LINE      CODE     ---       #103
      00FF83FCH   LINE      CODE     ---       #105
      00FF83FCH   LINE      CODE     ---       #107
      00FF8408H   LINE      CODE     ---       #108
      00FF8412H   LINE      CODE     ---       #110
      00FF8417H   LINE      CODE     ---       #111
      00FF8417H   LINE      CODE     ---       #112
      00FF8419H   LINE      CODE     ---       #114
      00FF8419H   LINE      CODE     ---       #116
      00FF842AH   LINE      CODE     ---       #117
      00FF843BH   LINE      CODE     ---       #118
      00FF843FH   LINE      CODE     ---       #119
      00FF8441H   LINE      CODE     ---       #121
      00FF8441H   LINE      CODE     ---       #123
      00FF844EH   LINE      CODE     ---       #124
      00FF8458H   LINE      CODE     ---       #126
      00FF845DH   LINE      CODE     ---       #127
      00FF845DH   LINE      CODE     ---       #131
      00FF845DH   LINE      CODE     ---       #134
      00FF8466H   LINE      CODE     ---       #136
      00FF846DH   LINE      CODE     ---       #137
      00FF8476H   LINE      CODE     ---       #139
      00FF847FH   LINE      CODE     ---       #141
      00FF848EH   LINE      CODE     ---       #143
      00FF848EH   LINE      CODE     ---       #145
      00FF849AH   LINE      CODE     ---       #146
      00FF849CH   LINE      CODE     ---       #148
      00FF849CH   LINE      CODE     ---       #150
      00FF84A8H   LINE      CODE     ---       #151
      00FF84AAH   LINE      CODE     ---       #153
      00FF84AAH   LINE      CODE     ---       #155
      00FF84BBH   LINE      CODE     ---       #156
      00FF84CCH   LINE      CODE     ---       #157
      00FF84D0H   LINE      CODE     ---       #158
      00FF84D0H   LINE      CODE     ---       #160
      00FF84D0H   LINE      CODE     ---       #161
      00FF84D0H   LINE      CODE     ---       #165
      ---         BLOCKEND  ---      ---       LVL=0

      ---         MODULE    ---      ---       oled
      00FF4526H   PUBLIC    CODE     ---       IPS_page_show
      00FFA00BH   PUBLIC    CODE     ---       IPS
      000007E4H   PUBLIC    EDATA    INT       time_counter
      000007E6H   PUBLIC    EDATA    INT       abc
      000007E8H   PUBLIC    EDATA    INT       ips_counter
      000007EAH   PUBLIC    EDATA    ---       page_buf
      00000826H   PUBLIC    EDATA    CHAR      ips_page
      000000D0H   SFRSYM    DATA     BYTE      PSW
      0000009DH   SFRSYM    DATA     BYTE      IRCBAND
      00000097H   SFRSYM    DATA     BYTE      AUXR2
      000000EFH   SFRSYM    DATA     BYTE      AUXINTIF
      000000FDH   SFRSYM    DATA     BYTE      S4CON
      000000ACH   SFRSYM    DATA     BYTE      S3CON
      0000009AH   SFRSYM    DATA     BYTE      S2CON
      000000B7H   SFRSYM    DATA     BYTE      IPH
      000000CDH   SFRSYM    DATA     BYTE      SPSTAT
      000000DDH   SFRSYM    DATA     BYTE      T4T3M
      000000C1H   SFRSYM    DATA     BYTE      WDT_CONTR
      000000DFH   SFRSYM    DATA     BYTE      IP3
      000000F4H   SFRSYM    DATA     BYTE      USBCON
      000000B5H   SFRSYM    DATA     BYTE      IP2
L251 LINKER/LOCATER V4.66.93.0                                                        07/15/2024  23:31:17  PAGE 117


      000000FFH   SFRSYM    DATA     BYTE      RSTCFG
      000000C7H   SFRSYM    DATA     BYTE      IAP_CONTR
      000000F9H   SFRSYM    DATA     BYTE      LINICR
      0000008EH   SFRSYM    DATA     BYTE      AUXR
      000000AFH   SFRSYM    DATA     BYTE      IE2
      00000088H   SFRSYM    DATA     BYTE      TCON
      00000089H   SFRSYM    DATA     BYTE      TMOD
      00000098H   SFRSYM    DATA     BYTE      SCON
      000000F1H   SFRSYM    DATA     BYTE      CANICR
      00000087H   SFRSYM    DATA     BYTE      PCON
      000000BCH   SFRSYM    DATA     BYTE      ADC_CONTR
      000000E7H   SFRSYM    DATA     BYTE      CMPCR2
      000000E6H   SFRSYM    DATA     BYTE      CMPCR1
      000000DEH   SFRSYM    DATA     BYTE      ADCCFG
      000000B8H   SFRSYM    DATA     BYTE      IP
      0000008FH   SFRSYM    DATA     BYTE      INTCLKO
      000000EEH   SFRSYM    DATA     BYTE      IP3H
      000000B6H   SFRSYM    DATA     BYTE      IP2H
      000000A8H   SFRSYM    DATA     BYTE      IE
      000000BBH   SFRSYM    DATA     BYTE      P_SW3
      000000BAH   SFRSYM    DATA     BYTE      P_SW2
      000000A2H   SFRSYM    DATA     BYTE      P_SW1
      000000CEH   SFRSYM    DATA     BYTE      SPCTL
      000000F8H   SFRSYM    DATA     BYTE      P7
      000000E8H   SFRSYM    DATA     BYTE      P6
      000000C8H   SFRSYM    DATA     BYTE      P5
      000000C0H   SFRSYM    DATA     BYTE      P4
      000000B0H   SFRSYM    DATA     BYTE      P3
      000000A0H   SFRSYM    DATA     BYTE      P2
      00000090H   SFRSYM    DATA     BYTE      P1
      00000080H   SFRSYM    DATA     BYTE      P0

      00FF4526H   BLOCK     CODE     ---       LVL=0
      00FF4526H   LINE      CODE     ---       #54
      00FF4526H   LINE      CODE     ---       #57
      00FF4540H   LINE      CODE     ---       #59
      00FF4540H   LINE      CODE     ---       #60
      00FF454DH   LINE      CODE     ---       #61
      00FF455CH   LINE      CODE     ---       #62
      00FF455FH   LINE      CODE     ---       #63
      00FF455FH   LINE      CODE     ---       #77
      00FF4578H   LINE      CODE     ---       #78
      00FF4583H   LINE      CODE     ---       #79
      00FF459CH   LINE      CODE     ---       #80
      00FF45A9H   LINE      CODE     ---       #81
      00FF45C9H   LINE      CODE     ---       #82
      00FF45D6H   LINE      CODE     ---       #83
      00FF45F6H   LINE      CODE     ---       #84
      00FF4603H   LINE      CODE     ---       #86
      00FF461CH   LINE      CODE     ---       #87
      00FF4629H   LINE      CODE     ---       #90
      00FF4642H   LINE      CODE     ---       #91
      00FF464FH   LINE      CODE     ---       #92
      00FF4666H   LINE      CODE     ---       #93
      00FF4675H   LINE      CODE     ---       #95
      00FF4693H   LINE      CODE     ---       #96
      00FF46A0H   LINE      CODE     ---       #97
      00FF46B7H   LINE      CODE     ---       #98
      00FF46C6H   LINE      CODE     ---       #99
      00FF46DDH   LINE      CODE     ---       #100
      00FF46ECH   LINE      CODE     ---       #103
      00FF4703H   LINE      CODE     ---       #104
      00FF4712H   LINE      CODE     ---       #105
      00FF4729H   LINE      CODE     ---       #106
      00FF4738H   LINE      CODE     ---       #107
L251 LINKER/LOCATER V4.66.93.0                                                        07/15/2024  23:31:17  PAGE 118


      00FF474FH   LINE      CODE     ---       #108
      00FF475EH   LINE      CODE     ---       #110
      00FF4777H   LINE      CODE     ---       #111
      00FF4786H   LINE      CODE     ---       #112
      00FF479DH   LINE      CODE     ---       #113
      00FF47ACH   LINE      CODE     ---       #114
      00FF47C5H   LINE      CODE     ---       #115
      00FF47D2H   LINE      CODE     ---       #118
      00FF47E9H   LINE      CODE     ---       #119
      00FF47F6H   LINE      CODE     ---       #120
      00FF480DH   LINE      CODE     ---       #121
      00FF481AH   LINE      CODE     ---       #124
      00FF4839H   LINE      CODE     ---       #125
      00FF4846H   LINE      CODE     ---       #141
      00FF4849H   LINE      CODE     ---       #143
      00FF4849H   LINE      CODE     ---       #145
      00FF4869H   LINE      CODE     ---       #146
      00FF4874H   LINE      CODE     ---       #147
      00FF4894H   LINE      CODE     ---       #148
      00FF48A1H   LINE      CODE     ---       #149
      00FF48C1H   LINE      CODE     ---       #150
      00FF48CEH   LINE      CODE     ---       #151
      00FF48EEH   LINE      CODE     ---       #152
      00FF48FBH   LINE      CODE     ---       #153
      00FF491BH   LINE      CODE     ---       #154
      00FF4928H   LINE      CODE     ---       #155
      00FF4948H   LINE      CODE     ---       #156
      00FF4955H   LINE      CODE     ---       #157
      00FF4975H   LINE      CODE     ---       #158
      00FF4982H   LINE      CODE     ---       #159
      00FF49A2H   LINE      CODE     ---       #160
      00FF49AFH   LINE      CODE     ---       #161
      00FF49C8H   LINE      CODE     ---       #162
      00FF49D7H   LINE      CODE     ---       #164
      00FF49EEH   LINE      CODE     ---       #165
      00FF49FBH   LINE      CODE     ---       #166
      00FF4A12H   LINE      CODE     ---       #167
      00FF4A21H   LINE      CODE     ---       #168
      00FF4A38H   LINE      CODE     ---       #169
      00FF4A47H   LINE      CODE     ---       #170
      00FF4A5EH   LINE      CODE     ---       #171
      00FF4A6DH   LINE      CODE     ---       #172
      00FF4A84H   LINE      CODE     ---       #173
      00FF4A93H   LINE      CODE     ---       #175
      00FF4AAAH   LINE      CODE     ---       #176
      00FF4AB9H   LINE      CODE     ---       #177
      00FF4AD0H   LINE      CODE     ---       #178
      00FF4ADFH   LINE      CODE     ---       #180
      00FF4AEEH   LINE      CODE     ---       #182
      00FF4B05H   LINE      CODE     ---       #183
      00FF4B12H   LINE      CODE     ---       #184
      00FF4B29H   LINE      CODE     ---       #185
      00FF4B38H   LINE      CODE     ---       #186
      00FF4B4FH   LINE      CODE     ---       #187
      00FF4B5EH   LINE      CODE     ---       #188
      00FF4B75H   LINE      CODE     ---       #189
      00FF4B84H   LINE      CODE     ---       #190
      00FF4B9BH   LINE      CODE     ---       #191
      00FF4BAAH   LINE      CODE     ---       #193
      00FF4BC1H   LINE      CODE     ---       #194
      00FF4BCEH   LINE      CODE     ---       #195
      00FF4BE5H   LINE      CODE     ---       #196
      00FF4BF4H   LINE      CODE     ---       #197
      00FF4C0BH   LINE      CODE     ---       #198
      00FF4C1AH   LINE      CODE     ---       #199
L251 LINKER/LOCATER V4.66.93.0                                                        07/15/2024  23:31:17  PAGE 119


      00FF4C31H   LINE      CODE     ---       #200
      00FF4C40H   LINE      CODE     ---       #201
      00FF4C57H   LINE      CODE     ---       #202
      00FF4C66H   LINE      CODE     ---       #203
      00FF4C66H   LINE      CODE     ---       #205
      00FF4C75H   LINE      CODE     ---       #207
      00FF4C8CH   LINE      CODE     ---       #208
      00FF4C99H   LINE      CODE     ---       #209
      00FF4CB0H   LINE      CODE     ---       #210
      00FF4CBFH   LINE      CODE     ---       #211
      00FF4CD6H   LINE      CODE     ---       #212
      00FF4CE5H   LINE      CODE     ---       #213
      00FF4CFCH   LINE      CODE     ---       #214
      00FF4D0BH   LINE      CODE     ---       #215
      00FF4D22H   LINE      CODE     ---       #216
      00FF4D31H   LINE      CODE     ---       #218
      00FF4D48H   LINE      CODE     ---       #219
      00FF4D55H   LINE      CODE     ---       #220
      00FF4D6CH   LINE      CODE     ---       #221
      00FF4D7BH   LINE      CODE     ---       #222
      00FF4D92H   LINE      CODE     ---       #223
      00FF4DA1H   LINE      CODE     ---       #224
      00FF4DB8H   LINE      CODE     ---       #225
      00FF4DC7H   LINE      CODE     ---       #226
      00FF4DDEH   LINE      CODE     ---       #227
      00FF4DEDH   LINE      CODE     ---       #230
      00FF4DEDH   LINE      CODE     ---       #247
      00FF4DF0H   LINE      CODE     ---       #250
      00FF4DF0H   LINE      CODE     ---       #251
      00FF4E0BH   LINE      CODE     ---       #253
      00FF4E0BH   LINE      CODE     ---       #254
      00FF4E1AH   LINE      CODE     ---       #255
      00FF4E25H   LINE      CODE     ---       #256
      00FF4E3EH   LINE      CODE     ---       #257
      00FF4E4BH   LINE      CODE     ---       #258
      00FF4E4EH   LINE      CODE     ---       #259
      00FF4E4EH   LINE      CODE     ---       #260
      00FF4E5DH   LINE      CODE     ---       #261
      00FF4E68H   LINE      CODE     ---       #262
      00FF4E81H   LINE      CODE     ---       #263
      00FF4E8EH   LINE      CODE     ---       #264
      00FF4E91H   LINE      CODE     ---       #265
      00FF4E91H   LINE      CODE     ---       #266
      00FF4EA0H   LINE      CODE     ---       #267
      00FF4EABH   LINE      CODE     ---       #268
      00FF4EC4H   LINE      CODE     ---       #269
      00FF4ED1H   LINE      CODE     ---       #270
      00FF4ED3H   LINE      CODE     ---       #271
      00FF4ED3H   LINE      CODE     ---       #272
      00FF4EE2H   LINE      CODE     ---       #273
      00FF4EEDH   LINE      CODE     ---       #274
      00FF4F06H   LINE      CODE     ---       #275
      00FF4F13H   LINE      CODE     ---       #276
      00FF4F13H   LINE      CODE     ---       #277
      00FF4F13H   LINE      CODE     ---       #279
      00FF4F2CH   LINE      CODE     ---       #280
      00FF4F39H   LINE      CODE     ---       #281
      00FF4F52H   LINE      CODE     ---       #282
      00FF4F5FH   LINE      CODE     ---       #283
      00FF4F7EH   LINE      CODE     ---       #284
      00FF4F8BH   LINE      CODE     ---       #285
      00FF4FA4H   LINE      CODE     ---       #286
      00FF4FB1H   LINE      CODE     ---       #289
      00FF4FB1H   LINE      CODE     ---       #292
      00FF4FB1H   LINE      CODE     ---       #294
L251 LINKER/LOCATER V4.66.93.0                                                        07/15/2024  23:31:17  PAGE 120


      ---         BLOCKEND  ---      ---       LVL=0

      00FFA00BH   BLOCK     CODE     ---       LVL=0
      00FFA00BH   LINE      CODE     ---       #298
      00FFA00BH   LINE      CODE     ---       #300
      00FFA019H   LINE      CODE     ---       #301
      00FFA027H   LINE      CODE     ---       #302
      00FFA033H   LINE      CODE     ---       #304
      00FFA039H   LINE      CODE     ---       #306
      00FFA03CH   LINE      CODE     ---       #307
      00FFA048H   LINE      CODE     ---       #309
      00FFA04EH   LINE      CODE     ---       #310
      00FFA055H   LINE      CODE     ---       #311
      00FFA055H   LINE      CODE     ---       #314
      ---         BLOCKEND  ---      ---       LVL=0

      ---         MODULE    ---      ---       iic_io
      00FFA4BCH   PUBLIC    CODE     ---       User_I2C_Init
      00FF946CH   PUBLIC    CODE     ---       I2C_RecvBytes
      00000E5EH   PUBLIC    EDATA    BYTE      ?I2C_SendBytes?BYTE
      00000F4FH   PUBLIC    EDATA    BYTE      ?I2C_RecvBytes?BYTE
      000000D0H   SFRSYM    DATA     BYTE      PSW
      0000009DH   SFRSYM    DATA     BYTE      IRCBAND
      00000097H   SFRSYM    DATA     BYTE      AUXR2
      000000EFH   SFRSYM    DATA     BYTE      AUXINTIF
      000000FDH   SFRSYM    DATA     BYTE      S4CON
      000000ACH   SFRSYM    DATA     BYTE      S3CON
      0000009AH   SFRSYM    DATA     BYTE      S2CON
      000000B7H   SFRSYM    DATA     BYTE      IPH
      000000CDH   SFRSYM    DATA     BYTE      SPSTAT
      000000DDH   SFRSYM    DATA     BYTE      T4T3M
      000000C1H   SFRSYM    DATA     BYTE      WDT_CONTR
      000000DFH   SFRSYM    DATA     BYTE      IP3
      000000F4H   SFRSYM    DATA     BYTE      USBCON
      000000B5H   SFRSYM    DATA     BYTE      IP2
      000000FFH   SFRSYM    DATA     BYTE      RSTCFG
      000000C7H   SFRSYM    DATA     BYTE      IAP_CONTR
      000000F9H   SFRSYM    DATA     BYTE      LINICR
      0000008EH   SFRSYM    DATA     BYTE      AUXR
      000000AFH   SFRSYM    DATA     BYTE      IE2
      00000088H   SFRSYM    DATA     BYTE      TCON
      00000089H   SFRSYM    DATA     BYTE      TMOD
      00000098H   SFRSYM    DATA     BYTE      SCON
      000000B0H.1 SFRSYM    DATA     BIT       P31
      000000B0H.0 SFRSYM    DATA     BIT       P30
      000000F1H   SFRSYM    DATA     BYTE      CANICR
      00000087H   SFRSYM    DATA     BYTE      PCON
      000000BCH   SFRSYM    DATA     BYTE      ADC_CONTR
      000000E7H   SFRSYM    DATA     BYTE      CMPCR2
      000000E6H   SFRSYM    DATA     BYTE      CMPCR1
      000000DEH   SFRSYM    DATA     BYTE      ADCCFG
      000000B8H   SFRSYM    DATA     BYTE      IP
      0000008FH   SFRSYM    DATA     BYTE      INTCLKO
      000000EEH   SFRSYM    DATA     BYTE      IP3H
      000000B6H   SFRSYM    DATA     BYTE      IP2H
      000000A8H   SFRSYM    DATA     BYTE      IE
      000000BBH   SFRSYM    DATA     BYTE      P_SW3
      000000BAH   SFRSYM    DATA     BYTE      P_SW2
      000000A2H   SFRSYM    DATA     BYTE      P_SW1
      000000CEH   SFRSYM    DATA     BYTE      SPCTL
      000000F8H   SFRSYM    DATA     BYTE      P7
      000000E8H   SFRSYM    DATA     BYTE      P6
      000000C8H   SFRSYM    DATA     BYTE      P5
      000000C0H   SFRSYM    DATA     BYTE      P4
      000000B0H   SFRSYM    DATA     BYTE      P3
L251 LINKER/LOCATER V4.66.93.0                                                        07/15/2024  23:31:17  PAGE 121


      000000A0H   SFRSYM    DATA     BYTE      P2
      00000090H   SFRSYM    DATA     BYTE      P1
      00000080H   SFRSYM    DATA     BYTE      P0
      00FF9F29H   SYMBOL    CODE     ---       I2C_DummyWrite
      00FF9A49H   SYMBOL    CODE     ---       I2C_SendByte
      00FF9AB5H   SYMBOL    CODE     ---       I2C_RecvAck
      00FF986BH   SYMBOL    CODE     ---       I2C_RecvByte
      00FFA247H   SYMBOL    CODE     ---       I2C_GenerateAck
      00FFA37BH   SYMBOL    CODE     ---       I2C_GenerateStart
      00FFA39DH   SYMBOL    CODE     ---       I2C_GenerateStop

      00FFA4BCH   BLOCK     CODE     ---       LVL=0
      00FFA4BCH   LINE      CODE     ---       #8
      00FFA4BCH   LINE      CODE     ---       #10
      00FFA4BFH   LINE      CODE     ---       #11
      00FFA4C2H   LINE      CODE     ---       #12
      ---         BLOCKEND  ---      ---       LVL=0

      00FFA37BH   BLOCK     CODE     ---       LVL=0
      00FFA37BH   LINE      CODE     ---       #18
      00FFA37BH   LINE      CODE     ---       #21
      00FFA37EH   LINE      CODE     ---       #22
      00FFA381H   LINE      CODE     ---       #23
      00FFA388H   LINE      CODE     ---       #24
      00FFA38BH   LINE      CODE     ---       #25
      00FFA392H   LINE      CODE     ---       #26
      00FFA395H   LINE      CODE     ---       #27
      00FFA39CH   LINE      CODE     ---       #28
      ---         BLOCKEND  ---      ---       LVL=0

      00FFA39DH   BLOCK     CODE     ---       LVL=0
      00FFA39DH   LINE      CODE     ---       #34
      00FFA39DH   LINE      CODE     ---       #36
      00FFA3A0H   LINE      CODE     ---       #37
      00FFA3A3H   LINE      CODE     ---       #38
      00FFA3AAH   LINE      CODE     ---       #39
      00FFA3ADH   LINE      CODE     ---       #40
      00FFA3B4H   LINE      CODE     ---       #41
      00FFA3B7H   LINE      CODE     ---       #42
      00FFA3BEH   LINE      CODE     ---       #43
      ---         BLOCKEND  ---      ---       LVL=0

      00FFA247H   BLOCK     CODE     ---       LVL=0
      00001413H   SYMBOL    EDATA    INT       ack
      00FFA247H   LINE      CODE     ---       #50
      00FFA24BH   LINE      CODE     ---       #52
      00FFA257H   LINE      CODE     ---       #54
      00FFA25AH   LINE      CODE     ---       #55
      00FFA25CH   LINE      CODE     ---       #58
      00FFA25FH   LINE      CODE     ---       #59
      00FFA25FH   LINE      CODE     ---       #61
      00FFA266H   LINE      CODE     ---       #62
      00FFA269H   LINE      CODE     ---       #63
      00FFA270H   LINE      CODE     ---       #64
      00FFA273H   LINE      CODE     ---       #65
      ---         BLOCKEND  ---      ---       LVL=0

      00FF9AB5H   BLOCK     CODE     ---       LVL=0
      00001013H   SYMBOL    EDATA    DWORD     Timeout
      00FF9AB9H   BLOCK     CODE     NEAR LAB  LVL=1
      00001017H   SYMBOL    EDATA    DWORD     timeout
      0000101BH   SYMBOL    EDATA    INT       ackStatus
      ---         BLOCKEND  ---      ---       LVL=1
      00FF9AB5H   LINE      CODE     ---       #71
      00FF9AB9H   LINE      CODE     ---       #72
L251 LINKER/LOCATER V4.66.93.0                                                        07/15/2024  23:31:17  PAGE 122


      00FF9AB9H   LINE      CODE     ---       #73
      00FF9ABFH   LINE      CODE     ---       #76
      00FF9AC2H   LINE      CODE     ---       #78
      00FF9AC9H   LINE      CODE     ---       #79
      00FF9ACCH   LINE      CODE     ---       #80
      00FF9AD3H   LINE      CODE     ---       #82
      00FF9AD3H   LINE      CODE     ---       #84
      00FF9AE8H   LINE      CODE     ---       #85
      00FF9AF2H   LINE      CODE     ---       #87
      00FF9AF2H   LINE      CODE     ---       #88
      00FF9AF2H   LINE      CODE     ---       #90
      00FF9B08H   LINE      CODE     ---       #92
      00FF9B10H   LINE      CODE     ---       #93
      00FF9B10H   LINE      CODE     ---       #94
      00FF9B10H   LINE      CODE     ---       #97
      00FF9B13H   LINE      CODE     ---       #98
      00FF9B1AH   LINE      CODE     ---       #99
      00FF9B1EH   LINE      CODE     ---       #100
      ---         BLOCKEND  ---      ---       LVL=0

      00FF9A49H   BLOCK     CODE     ---       LVL=0
      000010FEH   SYMBOL    EDATA    BYTE      tdata
      000010FFH   SYMBOL    EDATA    DWORD     Timeout
      00FF9A51H   BLOCK     CODE     NEAR LAB  LVL=1
      00001103H   SYMBOL    EDATA    DWORD     i
      ---         BLOCKEND  ---      ---       LVL=1
      00FF9A49H   LINE      CODE     ---       #107
      00FF9A51H   LINE      CODE     ---       #108
      00FF9A51H   LINE      CODE     ---       #111
      00FF9A54H   LINE      CODE     ---       #113
      00FF9A5CH   LINE      CODE     ---       #115
      00FF9A79H   LINE      CODE     ---       #117
      00FF9A7CH   LINE      CODE     ---       #118
      00FF9A7EH   LINE      CODE     ---       #121
      00FF9A81H   LINE      CODE     ---       #122
      00FF9A81H   LINE      CODE     ---       #124
      00FF9A84H   LINE      CODE     ---       #125
      00FF9A8BH   LINE      CODE     ---       #126
      00FF9A8EH   LINE      CODE     ---       #127
      00FF9A95H   LINE      CODE     ---       #128
      00FF9AADH   LINE      CODE     ---       #130
      00FF9AB4H   LINE      CODE     ---       #131
      ---         BLOCKEND  ---      ---       LVL=0

      00FF986BH   BLOCK     CODE     ---       LVL=0
      00000F43H   SYMBOL    EDATA    DWORD     i
      00000F47H   SYMBOL    EDATA    DWORD     tdata
      00000F4BH   SYMBOL    EDATA    DWORD     BitStatus
      00FF986BH   LINE      CODE     ---       #138
      00FF986BH   LINE      CODE     ---       #139
      00FF986BH   LINE      CODE     ---       #141
      00FF9871H   LINE      CODE     ---       #142
      00FF9877H   LINE      CODE     ---       #144
      00FF987AH   LINE      CODE     ---       #146
      00FF9881H   LINE      CODE     ---       #147
      00FF9889H   LINE      CODE     ---       #149
      00FF9893H   LINE      CODE     ---       #150
      00FF9896H   LINE      CODE     ---       #151
      00FF989DH   LINE      CODE     ---       #153
      00FF98B6H   LINE      CODE     ---       #154
      00FF98C6H   LINE      CODE     ---       #156
      00FF98C9H   LINE      CODE     ---       #157
      00FF98D0H   LINE      CODE     ---       #158
      00FF98E8H   LINE      CODE     ---       #160
      00FF98ECH   LINE      CODE     ---       #161
L251 LINKER/LOCATER V4.66.93.0                                                        07/15/2024  23:31:17  PAGE 123


      ---         BLOCKEND  ---      ---       LVL=0

      00FF9F29H   BLOCK     CODE     ---       LVL=0
      000012C5H   SYMBOL    EDATA    BYTE      SlaveAddr
      000012C6H   SYMBOL    EDATA    BYTE      RegAddr
      000012C7H   SYMBOL    EDATA    DWORD     Timeout
      00FF9F29H   LINE      CODE     ---       #171
      00FF9F37H   LINE      CODE     ---       #174
      00FF9F3AH   LINE      CODE     ---       #177
      00FF9F4DH   LINE      CODE     ---       #179
      00FF9F50H   LINE      CODE     ---       #180
      00FF9F56H   LINE      CODE     ---       #181
      00FF9F56H   LINE      CODE     ---       #183
      00FF9F67H   LINE      CODE     ---       #185
      00FF9F6AH   LINE      CODE     ---       #186
      00FF9F70H   LINE      CODE     ---       #187
      00FF9F70H   LINE      CODE     ---       #190
      00FF9F72H   LINE      CODE     ---       #191
      ---         BLOCKEND  ---      ---       LVL=0
      00000E5EH   SYMBOL    EDATA    BYTE      SlaveAddr
      00000E5FH   SYMBOL    EDATA    WORD      RegAddr
      00000E61H   SYMBOL    EDATA    ---       TxBuf
      00000E65H   SYMBOL    EDATA    BYTE      OperLen
      00000E66H   SYMBOL    EDATA    DWORD     Timeout
      00000E6AH   SYMBOL    EDATA    BYTE      i

      00FF946CH   BLOCK     CODE     ---       LVL=0
      00000F4FH   SYMBOL    EDATA    BYTE      SlaveAddr
      00000F50H   SYMBOL    EDATA    BYTE      RegAddr
      00000F51H   SYMBOL    EDATA    ---       Rxbuf
      00000F55H   SYMBOL    EDATA    BYTE      OperLen
      00000F56H   SYMBOL    EDATA    DWORD     Timeout
      00FF947EH   BLOCK     CODE     NEAR LAB  LVL=1
      00000F5AH   SYMBOL    EDATA    BYTE      i
      ---         BLOCKEND  ---      ---       LVL=1
      00FF946CH   LINE      CODE     ---       #239
      00FF947EH   LINE      CODE     ---       #240
      00FF947EH   LINE      CODE     ---       #241
      00FF9483H   LINE      CODE     ---       #244
      00FF9498H   LINE      CODE     ---       #246
      00FF949BH   LINE      CODE     ---       #247
      00FF94A2H   LINE      CODE     ---       #248
      00FF94A2H   LINE      CODE     ---       #251
      00FF94A5H   LINE      CODE     ---       #254
      00FF94BCH   LINE      CODE     ---       #256
      00FF94BFH   LINE      CODE     ---       #257
      00FF94C5H   LINE      CODE     ---       #258
      00FF94C5H   LINE      CODE     ---       #261
      00FF94CCH   LINE      CODE     ---       #263
      00FF94DEH   LINE      CODE     ---       #264
      00FF94E3H   LINE      CODE     ---       #265
      00FF9506H   LINE      CODE     ---       #267
      00FF951AH   LINE      CODE     ---       #268
      00FF9521H   LINE      CODE     ---       #271
      00FF9524H   LINE      CODE     ---       #273
      00FF9526H   LINE      CODE     ---       #274
      ---         BLOCKEND  ---      ---       LVL=0

      ---         MODULE    ---      ---       tf_luna
      00FF9EDCH   PUBLIC    CODE     ---       LunaReadDist
      00001210H   PUBLIC    EDATA    ---       Lidar1
      000000D0H   SFRSYM    DATA     BYTE      PSW
      0000009DH   SFRSYM    DATA     BYTE      IRCBAND
      00000097H   SFRSYM    DATA     BYTE      AUXR2
      000000EFH   SFRSYM    DATA     BYTE      AUXINTIF
L251 LINKER/LOCATER V4.66.93.0                                                        07/15/2024  23:31:17  PAGE 124


      000000FDH   SFRSYM    DATA     BYTE      S4CON
      000000ACH   SFRSYM    DATA     BYTE      S3CON
      0000009AH   SFRSYM    DATA     BYTE      S2CON
      000000B7H   SFRSYM    DATA     BYTE      IPH
      000000CDH   SFRSYM    DATA     BYTE      SPSTAT
      000000DDH   SFRSYM    DATA     BYTE      T4T3M
      000000C1H   SFRSYM    DATA     BYTE      WDT_CONTR
      000000DFH   SFRSYM    DATA     BYTE      IP3
      000000F4H   SFRSYM    DATA     BYTE      USBCON
      000000B5H   SFRSYM    DATA     BYTE      IP2
      000000FFH   SFRSYM    DATA     BYTE      RSTCFG
      000000C7H   SFRSYM    DATA     BYTE      IAP_CONTR
      000000F9H   SFRSYM    DATA     BYTE      LINICR
      0000008EH   SFRSYM    DATA     BYTE      AUXR
      000000AFH   SFRSYM    DATA     BYTE      IE2
      00000088H   SFRSYM    DATA     BYTE      TCON
      00000089H   SFRSYM    DATA     BYTE      TMOD
      00000098H   SFRSYM    DATA     BYTE      SCON
      000000F1H   SFRSYM    DATA     BYTE      CANICR
      00000087H   SFRSYM    DATA     BYTE      PCON
      000000BCH   SFRSYM    DATA     BYTE      ADC_CONTR
      000000E7H   SFRSYM    DATA     BYTE      CMPCR2
      000000E6H   SFRSYM    DATA     BYTE      CMPCR1
      000000DEH   SFRSYM    DATA     BYTE      ADCCFG
      000000B8H   SFRSYM    DATA     BYTE      IP
      0000008FH   SFRSYM    DATA     BYTE      INTCLKO
      000000EEH   SFRSYM    DATA     BYTE      IP3H
      000000B6H   SFRSYM    DATA     BYTE      IP2H
      000000A8H   SFRSYM    DATA     BYTE      IE
      000000BBH   SFRSYM    DATA     BYTE      P_SW3
      000000BAH   SFRSYM    DATA     BYTE      P_SW2
      000000A2H   SFRSYM    DATA     BYTE      P_SW1
      000000CEH   SFRSYM    DATA     BYTE      SPCTL
      000000F8H   SFRSYM    DATA     BYTE      P7
      000000E8H   SFRSYM    DATA     BYTE      P6
      000000C8H   SFRSYM    DATA     BYTE      P5
      000000C0H   SFRSYM    DATA     BYTE      P4
      000000B0H   SFRSYM    DATA     BYTE      P3
      000000A0H   SFRSYM    DATA     BYTE      P2
      00000090H   SFRSYM    DATA     BYTE      P1
      00000080H   SFRSYM    DATA     BYTE      P0

      00FF9EDCH   BLOCK     CODE     ---       LVL=0
      000011C0H   SYMBOL    EDATA    ---       lidar
      00FF9EE0H   BLOCK     CODE     NEAR LAB  LVL=1
      000011C4H   SYMBOL    EDATA    ---       buf
      000011C6H   SYMBOL    EDATA    INT       ret
      ---         BLOCKEND  ---      ---       LVL=1
      00FF9EDCH   LINE      CODE     ---       #13
      00FF9EE0H   LINE      CODE     ---       #14
      00FF9EE0H   LINE      CODE     ---       #16
      00FF9EFFH   LINE      CODE     ---       #17
      00FF9F09H   LINE      CODE     ---       #19
      00FF9F24H   LINE      CODE     ---       #20
      00FF9F24H   LINE      CODE     ---       #21
      00FF9F28H   LINE      CODE     ---       #22
      ---         BLOCKEND  ---      ---       LVL=0
      000011C8H   SYMBOL    EDATA    ---       lidar
      000011CCH   SYMBOL    EDATA    ---       buf
      000011CEH   SYMBOL    EDATA    INT       ret
      000011D0H   SYMBOL    EDATA    ---       lidar
      000011D4H   SYMBOL    EDATA    ---       buf
      000011D6H   SYMBOL    EDATA    INT       ret

      ---         MODULE    ---      ---       isr
L251 LINKER/LOCATER V4.66.93.0                                                        07/15/2024  23:31:17  PAGE 125


      00FFA056H   PUBLIC    CODE     ---       UART1_Isr
      00FFA3F3H   PUBLIC    CODE     ---       UART2_Isr
      00FFA40DH   PUBLIC    CODE     ---       UART3_Isr
      00FF9B7EH   PUBLIC    CODE     ---       UART4_Isr
      00FF0096H   PUBLIC    CODE     ---       INT0_Isr
      00FF000AH   PUBLIC    CODE     ---       INT1_Isr
      00FF009EH   PUBLIC    CODE     ---       INT2_Isr
      00FFA4CFH   PUBLIC    CODE     ---       INT3_Isr
      00FFA4D3H   PUBLIC    CODE     ---       INT4_Isr
      00FF0012H   PUBLIC    CODE     ---       TM0_Isr
      00FF84D1H   PUBLIC    CODE     ---       TM1_Isr
      00FFA4D7H   PUBLIC    CODE     ---       TM2_Isr
      00FFA4DBH   PUBLIC    CODE     ---       TM3_Isr
      00FFA4DFH   PUBLIC    CODE     ---       TM4_Isr
      00000B0AH   PUBLIC    EDATA    FLOAT     error_shu2
      00000B0EH   PUBLIC    EDATA    FLOAT     error_shuA
      00000B12H   PUBLIC    EDATA    INT       judge_sign
      00000B14H   PUBLIC    EDATA    FLOAT     error
      00000B18H   PUBLIC    EDATA    FLOAT     error_heng
      00000B1CH   PUBLIC    EDATA    CHAR      distance_protect
      00000B1DH   PUBLIC    EDATA    BYTE      temp_count
      00000B1EH   PUBLIC    EDATA    DWORD     SysTickFlag
      00000B22H   PUBLIC    EDATA    FLOAT     error_xie
      00000B26H   PUBLIC    EDATA    FLOAT     new_error
      00000B2AH   PUBLIC    EDATA    FLOAT     error_shu
      00000B2EH   PUBLIC    EDATA    FLOAT     pow_error
      000000D0H   SFRSYM    DATA     BYTE      PSW
      0000009DH   SFRSYM    DATA     BYTE      IRCBAND
      00000097H   SFRSYM    DATA     BYTE      AUXR2
      000000EFH   SFRSYM    DATA     BYTE      AUXINTIF
      000000FDH   SFRSYM    DATA     BYTE      S4CON
      000000ACH   SFRSYM    DATA     BYTE      S3CON
      0000009AH   SFRSYM    DATA     BYTE      S2CON
      000000B7H   SFRSYM    DATA     BYTE      IPH
      000000CDH   SFRSYM    DATA     BYTE      SPSTAT
      000000DDH   SFRSYM    DATA     BYTE      T4T3M
      000000C1H   SFRSYM    DATA     BYTE      WDT_CONTR
      000000DFH   SFRSYM    DATA     BYTE      IP3
      000000F4H   SFRSYM    DATA     BYTE      USBCON
      000000B5H   SFRSYM    DATA     BYTE      IP2
      000000FFH   SFRSYM    DATA     BYTE      RSTCFG
      000000C7H   SFRSYM    DATA     BYTE      IAP_CONTR
      000000F9H   SFRSYM    DATA     BYTE      LINICR
      0000008EH   SFRSYM    DATA     BYTE      AUXR
      000000AFH   SFRSYM    DATA     BYTE      IE2
      000000C8H.2 SFRSYM    DATA     BIT       P52
      00000088H   SFRSYM    DATA     BYTE      TCON
      00000089H   SFRSYM    DATA     BYTE      TMOD
      00000080H.4 SFRSYM    DATA     BIT       P04
      00000098H   SFRSYM    DATA     BYTE      SCON
      000000F1H   SFRSYM    DATA     BYTE      CANICR
      00000087H   SFRSYM    DATA     BYTE      PCON
      00000099H   SFRSYM    DATA     BYTE      SBUF
      000000BCH   SFRSYM    DATA     BYTE      ADC_CONTR
      000000E7H   SFRSYM    DATA     BYTE      CMPCR2
      000000E6H   SFRSYM    DATA     BYTE      CMPCR1
      000000DEH   SFRSYM    DATA     BYTE      ADCCFG
      000000B8H   SFRSYM    DATA     BYTE      IP
      0000008FH   SFRSYM    DATA     BYTE      INTCLKO
      000000EEH   SFRSYM    DATA     BYTE      IP3H
      000000B6H   SFRSYM    DATA     BYTE      IP2H
      000000A8H   SFRSYM    DATA     BYTE      IE
      000000BBH   SFRSYM    DATA     BYTE      P_SW3
      000000BAH   SFRSYM    DATA     BYTE      P_SW2
      000000A2H   SFRSYM    DATA     BYTE      P_SW1
L251 LINKER/LOCATER V4.66.93.0                                                        07/15/2024  23:31:17  PAGE 126


      000000CEH   SFRSYM    DATA     BYTE      SPCTL
      000000F8H   SFRSYM    DATA     BYTE      P7
      000000E8H   SFRSYM    DATA     BYTE      P6
      000000C8H   SFRSYM    DATA     BYTE      P5
      000000C0H   SFRSYM    DATA     BYTE      P4
      000000B0H   SFRSYM    DATA     BYTE      P3
      000000A0H   SFRSYM    DATA     BYTE      P2
      00000090H   SFRSYM    DATA     BYTE      P1
      00000080H   SFRSYM    DATA     BYTE      P0

      00FFA056H   BLOCK     CODE     ---       LVL=0
      00FFA058H   BLOCK     CODE     NEAR LAB  LVL=1
      00001432H   SYMBOL    EDATA    BYTE      res
      00000B32H   SYMBOL    EDATA    BYTE      dwon_count
      ---         BLOCKEND  ---      ---       LVL=1
      00FFA056H   LINE      CODE     ---       #37
      00FFA058H   LINE      CODE     ---       #38
      00FFA058H   LINE      CODE     ---       #41
      00FFA05DH   LINE      CODE     ---       #43
      00FFA060H   LINE      CODE     ---       #44
      00FFA065H   LINE      CODE     ---       #45
      00FFA065H   LINE      CODE     ---       #46
      00FFA06AH   LINE      CODE     ---       #48
      00FFA06DH   LINE      CODE     ---       #49
      00FFA073H   LINE      CODE     ---       #51
      00FFA078H   LINE      CODE     ---       #53
      00FFA08AH   LINE      CODE     ---       #54
      00FFA08EH   LINE      CODE     ---       #55
      00FFA090H   LINE      CODE     ---       #58
      00FFA095H   LINE      CODE     ---       #59
      00FFA095H   LINE      CODE     ---       #60
      ---         BLOCKEND  ---      ---       LVL=0

      00FFA3F3H   BLOCK     CODE     ---       LVL=0
      00FFA3F3H   LINE      CODE     ---       #64
      00FFA3F5H   LINE      CODE     ---       #66
      00FFA3FAH   LINE      CODE     ---       #68
      00FFA3FDH   LINE      CODE     ---       #69
      00FFA402H   LINE      CODE     ---       #70
      00FFA402H   LINE      CODE     ---       #71
      00FFA407H   LINE      CODE     ---       #73
      00FFA40AH   LINE      CODE     ---       #76
      ---         BLOCKEND  ---      ---       LVL=0

      00FFA40DH   BLOCK     CODE     ---       LVL=0
      00FFA40DH   LINE      CODE     ---       #81
      00FFA40FH   LINE      CODE     ---       #83
      00FFA414H   LINE      CODE     ---       #85
      00FFA417H   LINE      CODE     ---       #86
      00FFA41CH   LINE      CODE     ---       #87
      00FFA41CH   LINE      CODE     ---       #88
      00FFA421H   LINE      CODE     ---       #90
      00FFA424H   LINE      CODE     ---       #93
      ---         BLOCKEND  ---      ---       LVL=0

      00FF9B7EH   BLOCK     CODE     ---       LVL=0
      00FF9B7EH   LINE      CODE     ---       #98
      00FF9B92H   LINE      CODE     ---       #100
      00FF9B97H   LINE      CODE     ---       #102
      00FF9B9AH   LINE      CODE     ---       #103
      00FF9B9FH   LINE      CODE     ---       #104
      00FF9B9FH   LINE      CODE     ---       #105
      00FF9BA4H   LINE      CODE     ---       #107
      00FF9BA7H   LINE      CODE     ---       #109
      00FF9BB3H   LINE      CODE     ---       #111
L251 LINKER/LOCATER V4.66.93.0                                                        07/15/2024  23:31:17  PAGE 127


      00FF9BB6H   LINE      CODE     ---       #112
      00FF9BB8H   LINE      CODE     ---       #113
      00FF9BC4H   LINE      CODE     ---       #115
      00FF9BC7H   LINE      CODE     ---       #116
      00FF9BC7H   LINE      CODE     ---       #119
      ---         BLOCKEND  ---      ---       LVL=0

      00FF0096H   BLOCK     CODE     ---       LVL=0
      00FF0096H   LINE      CODE     ---       #122
      00FF0096H   LINE      CODE     ---       #124
      00FF0099H   LINE      CODE     ---       #125
      ---         BLOCKEND  ---      ---       LVL=0

      00FF000AH   BLOCK     CODE     ---       LVL=0
      00FF000AH   LINE      CODE     ---       #126
      00FF000AH   LINE      CODE     ---       #129
      ---         BLOCKEND  ---      ---       LVL=0

      00FF009EH   BLOCK     CODE     ---       LVL=0
      00FF009EH   LINE      CODE     ---       #130
      00FF009EH   LINE      CODE     ---       #132
      00FF00A1H   LINE      CODE     ---       #133
      ---         BLOCKEND  ---      ---       LVL=0

      00FFA4CFH   BLOCK     CODE     ---       LVL=0
      00FFA4CFH   LINE      CODE     ---       #134
      00FFA4CFH   LINE      CODE     ---       #136
      00FFA4D2H   LINE      CODE     ---       #137
      ---         BLOCKEND  ---      ---       LVL=0

      00FFA4D3H   BLOCK     CODE     ---       LVL=0
      00FFA4D3H   LINE      CODE     ---       #139
      00FFA4D3H   LINE      CODE     ---       #141
      00FFA4D6H   LINE      CODE     ---       #142
      ---         BLOCKEND  ---      ---       LVL=0

      00FF0012H   BLOCK     CODE     ---       LVL=0
      00FF0012H   LINE      CODE     ---       #149
      00FF0012H   LINE      CODE     ---       #152
      ---         BLOCKEND  ---      ---       LVL=0

      00FF84D1H   BLOCK     CODE     ---       LVL=0
      00FF84D1H   LINE      CODE     ---       #154
      00FF84E7H   LINE      CODE     ---       #156
      00FF84EAH   LINE      CODE     ---       #157
      00FF84F1H   LINE      CODE     ---       #167
      00FF8578H   LINE      CODE     ---       #171
      00FF85ACH   LINE      CODE     ---       #172
      00FF85E0H   LINE      CODE     ---       #173
      00FF8614H   LINE      CODE     ---       #185
      00FF862EH   LINE      CODE     ---       #187
      00FF8631H   LINE      CODE     ---       #189
      00FF863DH   LINE      CODE     ---       #190
      00FF8640H   LINE      CODE     ---       #192
      00FF8655H   LINE      CODE     ---       #194
      00FF8658H   LINE      CODE     ---       #197
      00FF8658H   LINE      CODE     ---       #200
      00FF86A3H   LINE      CODE     ---       #202
      00FF86A9H   LINE      CODE     ---       #203
      00FF86ABH   LINE      CODE     ---       #206
      00FF86B0H   LINE      CODE     ---       #207
      00FF86B0H   LINE      CODE     ---       #222
      00FF86BEH   LINE      CODE     ---       #223
      00FF86C7H   LINE      CODE     ---       #224
      ---         BLOCKEND  ---      ---       LVL=0
L251 LINKER/LOCATER V4.66.93.0                                                        07/15/2024  23:31:17  PAGE 128



      00FFA4D7H   BLOCK     CODE     ---       LVL=0
      00FFA4D7H   LINE      CODE     ---       #225
      00FFA4D7H   LINE      CODE     ---       #227
      00FFA4DAH   LINE      CODE     ---       #229
      ---         BLOCKEND  ---      ---       LVL=0

      00FFA4DBH   BLOCK     CODE     ---       LVL=0
      00FFA4DBH   LINE      CODE     ---       #230
      00FFA4DBH   LINE      CODE     ---       #232
      00FFA4DEH   LINE      CODE     ---       #234
      ---         BLOCKEND  ---      ---       LVL=0

      00FFA4DFH   BLOCK     CODE     ---       LVL=0
      00FFA4DFH   LINE      CODE     ---       #236
      00FFA4DFH   LINE      CODE     ---       #238
      00FFA4E2H   LINE      CODE     ---       #241
      ---         BLOCKEND  ---      ---       LVL=0

      ---         MODULE    ---      ---       main
      00FFA274H   PUBLIC    CODE     ---       main
      00001415H   PUBLIC    EDATA    INT       OLED_Open
      000000D0H   SFRSYM    DATA     BYTE      PSW
      0000009DH   SFRSYM    DATA     BYTE      IRCBAND
      00000097H   SFRSYM    DATA     BYTE      AUXR2
      000000EFH   SFRSYM    DATA     BYTE      AUXINTIF
      000000FDH   SFRSYM    DATA     BYTE      S4CON
      000000ACH   SFRSYM    DATA     BYTE      S3CON
      0000009AH   SFRSYM    DATA     BYTE      S2CON
      000000B7H   SFRSYM    DATA     BYTE      IPH
      000000CDH   SFRSYM    DATA     BYTE      SPSTAT
      000000DDH   SFRSYM    DATA     BYTE      T4T3M
      000000C1H   SFRSYM    DATA     BYTE      WDT_CONTR
      000000DFH   SFRSYM    DATA     BYTE      IP3
      000000F4H   SFRSYM    DATA     BYTE      USBCON
      000000B5H   SFRSYM    DATA     BYTE      IP2
      000000FFH   SFRSYM    DATA     BYTE      RSTCFG
      000000C7H   SFRSYM    DATA     BYTE      IAP_CONTR
      000000F9H   SFRSYM    DATA     BYTE      LINICR
      0000008EH   SFRSYM    DATA     BYTE      AUXR
      000000AFH   SFRSYM    DATA     BYTE      IE2
      00000088H   SFRSYM    DATA     BYTE      TCON
      00000089H   SFRSYM    DATA     BYTE      TMOD
      00000098H   SFRSYM    DATA     BYTE      SCON
      000000F1H   SFRSYM    DATA     BYTE      CANICR
      00000087H   SFRSYM    DATA     BYTE      PCON
      000000BCH   SFRSYM    DATA     BYTE      ADC_CONTR
      000000E7H   SFRSYM    DATA     BYTE      CMPCR2
      000000E6H   SFRSYM    DATA     BYTE      CMPCR1
      000000DEH   SFRSYM    DATA     BYTE      ADCCFG
      000000B8H   SFRSYM    DATA     BYTE      IP
      0000008FH   SFRSYM    DATA     BYTE      INTCLKO
      000000EEH   SFRSYM    DATA     BYTE      IP3H
      000000B6H   SFRSYM    DATA     BYTE      IP2H
      000000A8H   SFRSYM    DATA     BYTE      IE
      000000BBH   SFRSYM    DATA     BYTE      P_SW3
      000000BAH   SFRSYM    DATA     BYTE      P_SW2
      000000A2H   SFRSYM    DATA     BYTE      P_SW1
      000000CEH   SFRSYM    DATA     BYTE      SPCTL
      000000F8H   SFRSYM    DATA     BYTE      P7
      000000E8H   SFRSYM    DATA     BYTE      P6
      000000C8H   SFRSYM    DATA     BYTE      P5
      000000C0H   SFRSYM    DATA     BYTE      P4
      000000B0H   SFRSYM    DATA     BYTE      P3
      000000A0H   SFRSYM    DATA     BYTE      P2
L251 LINKER/LOCATER V4.66.93.0                                                        07/15/2024  23:31:17  PAGE 129


      00000090H   SFRSYM    DATA     BYTE      P1
      00000080H   SFRSYM    DATA     BYTE      P0

      00FFA274H   BLOCK     CODE     ---       LVL=0
      00FFA274H   LINE      CODE     ---       #31
      00FFA274H   LINE      CODE     ---       #33
      00FFA277H   LINE      CODE     ---       #34
      00FFA282H   LINE      CODE     ---       #35
      00FFA285H   LINE      CODE     ---       #38
      00FFA288H   LINE      CODE     ---       #40
      00FFA293H   LINE      CODE     ---       #44
      00FFA296H   LINE      CODE     ---       #48
      00FFA296H   LINE      CODE     ---       #54
      00FFA299H   LINE      CODE     ---       #56
      00FFA29CH   LINE      CODE     ---       #63
      00FFA29EH   LINE      CODE     ---       #64
      ---         BLOCKEND  ---      ---       LVL=0

      ---         MODULE    ---      ---       seekfree_assistant
      000003EFH   PUBLIC    EDATA    ---       seekfree_assistant_oscilloscope_data
      0000042AH   PUBLIC    EDATA    ---       seekfree_assistant_parameter_update_flag
      00000432H   PUBLIC    EDATA    ---       seekfree_assistant_parameter
      000000D0H   SFRSYM    DATA     BYTE      PSW
      0000009DH   SFRSYM    DATA     BYTE      IRCBAND
      00000097H   SFRSYM    DATA     BYTE      AUXR2
      000000EFH   SFRSYM    DATA     BYTE      AUXINTIF
      000000FDH   SFRSYM    DATA     BYTE      S4CON
      000000ACH   SFRSYM    DATA     BYTE      S3CON
      0000009AH   SFRSYM    DATA     BYTE      S2CON
      000000B7H   SFRSYM    DATA     BYTE      IPH
      000000CDH   SFRSYM    DATA     BYTE      SPSTAT
      000000DDH   SFRSYM    DATA     BYTE      T4T3M
      000000C1H   SFRSYM    DATA     BYTE      WDT_CONTR
      000000DFH   SFRSYM    DATA     BYTE      IP3
      000000F4H   SFRSYM    DATA     BYTE      USBCON
      000000B5H   SFRSYM    DATA     BYTE      IP2
      000000FFH   SFRSYM    DATA     BYTE      RSTCFG
      000000C7H   SFRSYM    DATA     BYTE      IAP_CONTR
      000000F9H   SFRSYM    DATA     BYTE      LINICR
      0000008EH   SFRSYM    DATA     BYTE      AUXR
      000000AFH   SFRSYM    DATA     BYTE      IE2
      00000088H   SFRSYM    DATA     BYTE      TCON
      00000089H   SFRSYM    DATA     BYTE      TMOD
      00000098H   SFRSYM    DATA     BYTE      SCON
      000000F1H   SFRSYM    DATA     BYTE      CANICR
      00000087H   SFRSYM    DATA     BYTE      PCON
      000000BCH   SFRSYM    DATA     BYTE      ADC_CONTR
      000000E7H   SFRSYM    DATA     BYTE      CMPCR2
      000000E6H   SFRSYM    DATA     BYTE      CMPCR1
      000000DEH   SFRSYM    DATA     BYTE      ADCCFG
      000000B8H   SFRSYM    DATA     BYTE      IP
      0000008FH   SFRSYM    DATA     BYTE      INTCLKO
      000000EEH   SFRSYM    DATA     BYTE      IP3H
      000000B6H   SFRSYM    DATA     BYTE      IP2H
      000000A8H   SFRSYM    DATA     BYTE      IE
      000000BBH   SFRSYM    DATA     BYTE      P_SW3
      000000BAH   SFRSYM    DATA     BYTE      P_SW2
      000000A2H   SFRSYM    DATA     BYTE      P_SW1
      000000CEH   SFRSYM    DATA     BYTE      SPCTL
      000000F8H   SFRSYM    DATA     BYTE      P7
      000000E8H   SFRSYM    DATA     BYTE      P6
      000000C8H   SFRSYM    DATA     BYTE      P5
      000000C0H   SFRSYM    DATA     BYTE      P4
      000000B0H   SFRSYM    DATA     BYTE      P3
      000000A0H   SFRSYM    DATA     BYTE      P2
L251 LINKER/LOCATER V4.66.93.0                                                        07/15/2024  23:31:17  PAGE 130


      00000090H   SFRSYM    DATA     BYTE      P1
      00000080H   SFRSYM    DATA     BYTE      P0
      00000413H   SYMBOL    EDATA    ---       seekfree_assistant_fifo
      00000452H   SYMBOL    EDATA    ---       seekfree_assistant_buffer
      00001107H   SYMBOL    EDATA    ---       buffer
      0000110BH   SYMBOL    EDATA    DWORD     length
      0000110FH   SYMBOL    EDATA    BYTE      temp_sum
      00000AE0H   SYMBOL    EDATA    ---       seekfree_assistant_oscilloscope
      00000AE4H   SYMBOL    EDATA    BYTE      packet_size
      00000AE5H   SYMBOL    EDATA    BYTE      i
      00000AE6H   SYMBOL    EDATA    ---       temp_oscilloscope
      00000573H   SYMBOL    EDATA    BYTE      temp_sum
      00000574H   SYMBOL    EDATA    DWORD     read_length
      00000578H   SYMBOL    EDATA    ---       receive_packet
      0000057CH   SYMBOL    EDATA    ---       temp_buffer
      000005FCH   SYMBOL    EDATA    DWORD     i

      ---         MODULE    ---      ---       seekfree_assistant_inface
      00001369H   PUBLIC    EDATA    ---       seekfree_assistant_receive
      0000136BH   PUBLIC    EDATA    ---       seekfree_assistant_transfer
      000000D0H   SFRSYM    DATA     BYTE      PSW
      0000009DH   SFRSYM    DATA     BYTE      IRCBAND
      00000097H   SFRSYM    DATA     BYTE      AUXR2
      000000EFH   SFRSYM    DATA     BYTE      AUXINTIF
      000000FDH   SFRSYM    DATA     BYTE      S4CON
      000000ACH   SFRSYM    DATA     BYTE      S3CON
      0000009AH   SFRSYM    DATA     BYTE      S2CON
      000000B7H   SFRSYM    DATA     BYTE      IPH
      000000CDH   SFRSYM    DATA     BYTE      SPSTAT
      000000DDH   SFRSYM    DATA     BYTE      T4T3M
      000000C1H   SFRSYM    DATA     BYTE      WDT_CONTR
      000000DFH   SFRSYM    DATA     BYTE      IP3
      000000F4H   SFRSYM    DATA     BYTE      USBCON
      000000B5H   SFRSYM    DATA     BYTE      IP2
      000000FFH   SFRSYM    DATA     BYTE      RSTCFG
      000000C7H   SFRSYM    DATA     BYTE      IAP_CONTR
      000000F9H   SFRSYM    DATA     BYTE      LINICR
      0000008EH   SFRSYM    DATA     BYTE      AUXR
      000000AFH   SFRSYM    DATA     BYTE      IE2
      00000088H   SFRSYM    DATA     BYTE      TCON
      00000089H   SFRSYM    DATA     BYTE      TMOD
      00000098H   SFRSYM    DATA     BYTE      SCON
      000000F1H   SFRSYM    DATA     BYTE      CANICR
      00000087H   SFRSYM    DATA     BYTE      PCON
      000000BCH   SFRSYM    DATA     BYTE      ADC_CONTR
      000000E7H   SFRSYM    DATA     BYTE      CMPCR2
      000000E6H   SFRSYM    DATA     BYTE      CMPCR1
      000000DEH   SFRSYM    DATA     BYTE      ADCCFG
      000000B8H   SFRSYM    DATA     BYTE      IP
      0000008FH   SFRSYM    DATA     BYTE      INTCLKO
      000000EEH   SFRSYM    DATA     BYTE      IP3H
      000000B6H   SFRSYM    DATA     BYTE      IP2H
      000000A8H   SFRSYM    DATA     BYTE      IE
      000000BBH   SFRSYM    DATA     BYTE      P_SW3
      000000BAH   SFRSYM    DATA     BYTE      P_SW2
      000000A2H   SFRSYM    DATA     BYTE      P_SW1
      000000CEH   SFRSYM    DATA     BYTE      SPCTL
      000000F8H   SFRSYM    DATA     BYTE      P7
      000000E8H   SFRSYM    DATA     BYTE      P6
      000000C8H   SFRSYM    DATA     BYTE      P5
      000000C0H   SFRSYM    DATA     BYTE      P4
      000000B0H   SFRSYM    DATA     BYTE      P3
      000000A0H   SFRSYM    DATA     BYTE      P2
      00000090H   SFRSYM    DATA     BYTE      P1
      00000080H   SFRSYM    DATA     BYTE      P0
L251 LINKER/LOCATER V4.66.93.0                                                        07/15/2024  23:31:17  PAGE 131



      ---         MODULE    ---      ---       SEEKFREE_CONFIG
      00FF00A6H   PUBLIC    CODE     ---       dl1b_default_configuration
      00FF012DH   PUBLIC    CODE     ---       imu660ra_config_file

      ---         MODULE    ---      ---       PRINTF
      00000B5BH   PUBLIC    EDATA    ---       ?PRINTF?BYTE
      00FF6208H   PUBLIC    CODE     NEAR LAB  PRINTF

      ---         MODULE    ---      ---       SPRINTF
      00000B5BH   PUBLIC    EDATA    ---       ?SPRINTF?BYTE
      00FF6234H   PUBLIC    CODE     NEAR LAB  SPRINTF

      ---         MODULE    ---      ---       ?C?PRNFMT
      00FF6281H   PUBLIC    CODE     ---       ?C?PRNFMT

      ---         MODULE    ---      ---       ?C?FPCONVERT
      00FF669EH   PUBLIC    CODE     ---       ?C?FPCONVERT
      00FF6756H   PUBLIC    CODE     ---       ?C?FPROUND

      ---         MODULE    ---      ---       ?C?FTNPWR
      00FF67C9H   PUBLIC    CODE     ---       ?C?FTNPWR

      ---         MODULE    ---      ---       ?C_START
      00FF0000H   PUBLIC    CODE     ---       ?C?STARTUP
      00FF0000H   PUBLIC    CODE     ---       ?C_STARTUP

      ---         MODULE    ---      ---       ?C?INITEDATA
      00FFA0ABH   PUBLIC    CODE     ---       ?C?INITEDATA

      ---         MODULE    ---      ---       ?C?SIDIV
      00FF6800H   PUBLIC    CODE     ---       ?C?SIDIV

      ---         MODULE    ---      ---       ?C?LMUL
      00FF6832H   PUBLIC    CODE     ---       ?C?LMUL

      ---         MODULE    ---      ---       ?C?LIMUL
      00FF6843H   PUBLIC    CODE     ---       ?C?LIMUL

      ---         MODULE    ---      ---       ?C?ULDIV
      00FF684EH   PUBLIC    CODE     NEAR LAB  ?C?ULDIV
      00FF684CH   PUBLIC    CODE     NEAR LAB  ?C?ULIDIV

      ---         MODULE    ---      ---       ?C?SLDIV
      00FF689FH   PUBLIC    CODE     NEAR LAB  ?C?SLDIV

      ---         MODULE    ---      ---       ?C?BMOVENP
      00FF68D5H   PUBLIC    CODE     ---       ?C?BMOVENP
      00FF68D3H   PUBLIC    CODE     ---       ?C?BMOVENP8

      ---         MODULE    ---      ---       STRLEN

      ---         MODULE    ---      ---       memcpy
      00FFA2EFH   PUBLIC    CODE     ---       memcpy?_

      ---         MODULE    ---      ---       memset

      ---         MODULE    ---      ---       ?C?INITEDATA_END
      00FFA963H   PUBLIC    HCONST   WORD      ?C?INITEDATA_END

Program Size: data=8.0 edata+hdata=5419 xdata=0 const=2071 code=42197
L251 RUN COMPLETE.  0 WARNING(S),  0 ERROR(S)
